	.def	@feat.00;
	.scl	3;
	.type	0;
	.endef
	.globl	@feat.00
@feat.00 = 0
	.file	"chkgxga74wkr713nz2ta6sibu"
	.def	_RINvMNtCsaGRekH07FSF_4core6optionINtB3_6OptionReE11map_or_elseNtNtCsdKWIjqbzJ9K_5alloc6string6StringNCNvNtB12_3fmt6format0NvYeNtNtB12_6borrow7ToOwned8to_ownedECs2J74ZzqJeQl_5types;
	.scl	2;
	.type	32;
	.endef
	.section	.text,"xr",one_only,_RINvMNtCsaGRekH07FSF_4core6optionINtB3_6OptionReE11map_or_elseNtNtCsdKWIjqbzJ9K_5alloc6string6StringNCNvNtB12_3fmt6format0NvYeNtNtB12_6borrow7ToOwned8to_ownedECs2J74ZzqJeQl_5types,unique,0
	.globl	_RINvMNtCsaGRekH07FSF_4core6optionINtB3_6OptionReE11map_or_elseNtNtCsdKWIjqbzJ9K_5alloc6string6StringNCNvNtB12_3fmt6format0NvYeNtNtB12_6borrow7ToOwned8to_ownedECs2J74ZzqJeQl_5types
	.p2align	4
_RINvMNtCsaGRekH07FSF_4core6optionINtB3_6OptionReE11map_or_elseNtNtCsdKWIjqbzJ9K_5alloc6string6StringNCNvNtB12_3fmt6format0NvYeNtNtB12_6borrow7ToOwned8to_ownedECs2J74ZzqJeQl_5types:
.Lfunc_begin0:
	.cv_func_id 0
	.cv_file	1 "/rustc/1be6b13be73dc12e98e51b403add4c41a0b77759\\library\\core\\src\\option.rs" "10045899E14E8E39468EF22CBF9FF7C7CBE4C4FAEE7D614C9904AFDEE56BE6CD" 3
	.cv_loc	0 1 1271 0
.seh_proc _RINvMNtCsaGRekH07FSF_4core6optionINtB3_6OptionReE11map_or_elseNtNtCsdKWIjqbzJ9K_5alloc6string6StringNCNvNtB12_3fmt6format0NvYeNtNtB12_6borrow7ToOwned8to_ownedECs2J74ZzqJeQl_5types
	subq	$104, %rsp
	.seh_stackalloc 104
	.seh_endprologue
	movq	%r9, 32(%rsp)
	movq	%rcx, 40(%rsp)
	movq	%rcx, 48(%rsp)
	movq	%rdx, 56(%rsp)
	movq	%r8, 64(%rsp)
	movq	%r9, 80(%rsp)
.Ltmp0:
	.cv_loc	0 1 1276 0
	movb	$1, 79(%rsp)
	movb	$1, 78(%rsp)
	movq	56(%rsp), %rdx
	movl	$1, %eax
	xorl	%ecx, %ecx
	cmpq	$0, %rdx
	cmoveq	%rcx, %rax
	testq	$1, %rax
	je	.LBB0_2
	.cv_loc	0 1 1277 0
	movq	40(%rsp), %rcx
	movq	56(%rsp), %rdx
	movq	64(%rsp), %r8
	movq	%rdx, 88(%rsp)
	movq	%r8, 96(%rsp)
.Ltmp1:
	.cv_loc	0 1 1277 0
	movb	$0, 78(%rsp)
	callq	_RNvYNvYeNtNtCsdKWIjqbzJ9K_5alloc6borrow7ToOwned8to_ownedINtNtNtCsaGRekH07FSF_4core3ops8function6FnOnceTReEE9call_onceCs2J74ZzqJeQl_5types
.Ltmp2:
	.cv_loc	0 1 1280 0
	testb	$1, 79(%rsp)
	jne	.LBB0_4
	jmp	.LBB0_3
.LBB0_2:
	.cv_loc	0 1 1278 0
	movq	32(%rsp), %rdx
	movq	40(%rsp), %rcx
	movb	$0, 79(%rsp)
	callq	_RNCNvNtCsdKWIjqbzJ9K_5alloc3fmt6format0Cs2J74ZzqJeQl_5types
.LBB0_3:
	.cv_loc	0 1 1280 0
	movq	48(%rsp), %rax
	.seh_startepilogue
	addq	$104, %rsp
	.seh_endepilogue
	retq
.LBB0_4:
	jmp	.LBB0_3
.Ltmp3:
.Lfunc_end0:
	.seh_endproc

	.def	_RINvMNtCsdKWIjqbzJ9K_5alloc5sliceSRe4joinBw_ECs2J74ZzqJeQl_5types;
	.scl	2;
	.type	32;
	.endef
	.section	.text,"xr",one_only,_RINvMNtCsdKWIjqbzJ9K_5alloc5sliceSRe4joinBw_ECs2J74ZzqJeQl_5types,unique,1
	.globl	_RINvMNtCsdKWIjqbzJ9K_5alloc5sliceSRe4joinBw_ECs2J74ZzqJeQl_5types
	.p2align	4
_RINvMNtCsdKWIjqbzJ9K_5alloc5sliceSRe4joinBw_ECs2J74ZzqJeQl_5types:
.Lfunc_begin1:
	.cv_func_id 1
	.cv_file	2 "/rustc/1be6b13be73dc12e98e51b403add4c41a0b77759\\library\\alloc\\src\\slice.rs" "333415AA9DD7759E04319E4519B3039BA6CF537613662D13A5E754159C004CCE" 3
	.cv_loc	1 2 594 0
.seh_proc _RINvMNtCsdKWIjqbzJ9K_5alloc5sliceSRe4joinBw_ECs2J74ZzqJeQl_5types
	subq	$88, %rsp
	.seh_stackalloc 88
	.seh_endprologue
	movq	%rcx, %rax
	movq	%rax, 48(%rsp)
	movq	128(%rsp), %rax
	movq	%rdx, 56(%rsp)
	movq	%r8, 64(%rsp)
	movq	%r9, 72(%rsp)
	movq	%rax, 80(%rsp)
.Ltmp4:
	.cv_loc	1 2 598 0
	movq	%rax, 32(%rsp)
	callq	_RNvXs_NtCsdKWIjqbzJ9K_5alloc3strSReINtNtB6_5slice4JoinBv_E4joinCs2J74ZzqJeQl_5types
	movq	48(%rsp), %rax
	.cv_loc	1 2 599 0
	.seh_startepilogue
	addq	$88, %rsp
	.seh_endepilogue
	retq
.Ltmp5:
.Lfunc_end1:
	.seh_endproc

	.def	_RINvMNtNtCsaGRekH07FSF_4core3fmt2rtNtB3_8Argument11new_displayNtNtCsdKWIjqbzJ9K_5alloc6string6StringECs2J74ZzqJeQl_5types;
	.scl	2;
	.type	32;
	.endef
	.section	.text,"xr",one_only,_RINvMNtNtCsaGRekH07FSF_4core3fmt2rtNtB3_8Argument11new_displayNtNtCsdKWIjqbzJ9K_5alloc6string6StringECs2J74ZzqJeQl_5types,unique,2
	.globl	_RINvMNtNtCsaGRekH07FSF_4core3fmt2rtNtB3_8Argument11new_displayNtNtCsdKWIjqbzJ9K_5alloc6string6StringECs2J74ZzqJeQl_5types
	.p2align	4
_RINvMNtNtCsaGRekH07FSF_4core3fmt2rtNtB3_8Argument11new_displayNtNtCsdKWIjqbzJ9K_5alloc6string6StringECs2J74ZzqJeQl_5types:
.Lfunc_begin2:
	.cv_func_id 2
	.cv_file	3 "/rustc/1be6b13be73dc12e98e51b403add4c41a0b77759\\library\\core\\src\\fmt\\rt.rs" "7A7DD4B1640A734FCB82F178AB69868B8F2F624A8C1F5A6FCF85002F4E2E4423" 3
	.cv_loc	2 3 89 0
.seh_proc _RINvMNtNtCsaGRekH07FSF_4core3fmt2rtNtB3_8Argument11new_displayNtNtCsdKWIjqbzJ9K_5alloc6string6StringECs2J74ZzqJeQl_5types
	subq	$24, %rsp
	.seh_stackalloc 24
	.seh_endprologue
	movq	%rcx, %rax
	movq	%rdx, 16(%rsp)
.Ltmp6:
	.cv_loc	2 3 47 0
	movq	%rdx, (%rsp)
	leaq	_RNvXsn_NtCsdKWIjqbzJ9K_5alloc6stringNtB5_6StringNtNtCsaGRekH07FSF_4core3fmt7Display3fmtCs2J74ZzqJeQl_5types(%rip), %rdx
	movq	%rdx, 8(%rsp)
	.cv_loc	2 3 44 0
	movq	(%rsp), %rdx
	movq	%rdx, (%rcx)
	movq	8(%rsp), %rdx
	movq	%rdx, 8(%rcx)
	.cv_loc	2 3 91 0
	.seh_startepilogue
	addq	$24, %rsp
	.seh_endepilogue
	retq
.Ltmp7:
.Lfunc_end2:
	.seh_endproc

	.def	_RINvMNtNtCsaGRekH07FSF_4core3fmt2rtNtB3_8Argument11new_displayaECs2J74ZzqJeQl_5types;
	.scl	2;
	.type	32;
	.endef
	.section	.text,"xr",one_only,_RINvMNtNtCsaGRekH07FSF_4core3fmt2rtNtB3_8Argument11new_displayaECs2J74ZzqJeQl_5types,unique,3
	.globl	_RINvMNtNtCsaGRekH07FSF_4core3fmt2rtNtB3_8Argument11new_displayaECs2J74ZzqJeQl_5types
	.p2align	4
_RINvMNtNtCsaGRekH07FSF_4core3fmt2rtNtB3_8Argument11new_displayaECs2J74ZzqJeQl_5types:
.Lfunc_begin3:
	.cv_func_id 3
	.cv_loc	3 3 89 0
.seh_proc _RINvMNtNtCsaGRekH07FSF_4core3fmt2rtNtB3_8Argument11new_displayaECs2J74ZzqJeQl_5types
	subq	$24, %rsp
	.seh_stackalloc 24
	.seh_endprologue
	movq	%rcx, %rax
	movq	%rdx, 16(%rsp)
.Ltmp8:
	.cv_loc	3 3 47 0
	movq	%rdx, (%rsp)
	leaq	_RNvXs_NtNtNtCsaGRekH07FSF_4core3fmt3num3impaNtB8_7Display3fmt(%rip), %rdx
	movq	%rdx, 8(%rsp)
	.cv_loc	3 3 44 0
	movq	(%rsp), %rdx
	movq	%rdx, (%rcx)
	movq	8(%rsp), %rdx
	movq	%rdx, 8(%rcx)
	.cv_loc	3 3 91 0
	.seh_startepilogue
	addq	$24, %rsp
	.seh_endepilogue
	retq
.Ltmp9:
.Lfunc_end3:
	.seh_endproc

	.def	_RINvMNtNtCsaGRekH07FSF_4core3fmt2rtNtB3_8Argument11new_displayhECs2J74ZzqJeQl_5types;
	.scl	2;
	.type	32;
	.endef
	.section	.text,"xr",one_only,_RINvMNtNtCsaGRekH07FSF_4core3fmt2rtNtB3_8Argument11new_displayhECs2J74ZzqJeQl_5types,unique,4
	.globl	_RINvMNtNtCsaGRekH07FSF_4core3fmt2rtNtB3_8Argument11new_displayhECs2J74ZzqJeQl_5types
	.p2align	4
_RINvMNtNtCsaGRekH07FSF_4core3fmt2rtNtB3_8Argument11new_displayhECs2J74ZzqJeQl_5types:
.Lfunc_begin4:
	.cv_func_id 4
	.cv_loc	4 3 89 0
.seh_proc _RINvMNtNtCsaGRekH07FSF_4core3fmt2rtNtB3_8Argument11new_displayhECs2J74ZzqJeQl_5types
	subq	$24, %rsp
	.seh_stackalloc 24
	.seh_endprologue
	movq	%rcx, %rax
	movq	%rdx, 16(%rsp)
.Ltmp10:
	.cv_loc	4 3 47 0
	movq	%rdx, (%rsp)
	leaq	_RNvXNtNtNtCsaGRekH07FSF_4core3fmt3num3imphNtB6_7Display3fmt(%rip), %rdx
	movq	%rdx, 8(%rsp)
	.cv_loc	4 3 44 0
	movq	(%rsp), %rdx
	movq	%rdx, (%rcx)
	movq	8(%rsp), %rdx
	movq	%rdx, 8(%rcx)
	.cv_loc	4 3 91 0
	.seh_startepilogue
	addq	$24, %rsp
	.seh_endepilogue
	retq
.Ltmp11:
.Lfunc_end4:
	.seh_endproc

	.def	_RINvMNtNtCsaGRekH07FSF_4core3fmt2rtNtB3_8Argument11new_displayiECs2J74ZzqJeQl_5types;
	.scl	2;
	.type	32;
	.endef
	.section	.text,"xr",one_only,_RINvMNtNtCsaGRekH07FSF_4core3fmt2rtNtB3_8Argument11new_displayiECs2J74ZzqJeQl_5types,unique,5
	.globl	_RINvMNtNtCsaGRekH07FSF_4core3fmt2rtNtB3_8Argument11new_displayiECs2J74ZzqJeQl_5types
	.p2align	4
_RINvMNtNtCsaGRekH07FSF_4core3fmt2rtNtB3_8Argument11new_displayiECs2J74ZzqJeQl_5types:
.Lfunc_begin5:
	.cv_func_id 5
	.cv_loc	5 3 89 0
.seh_proc _RINvMNtNtCsaGRekH07FSF_4core3fmt2rtNtB3_8Argument11new_displayiECs2J74ZzqJeQl_5types
	subq	$24, %rsp
	.seh_stackalloc 24
	.seh_endprologue
	movq	%rcx, %rax
	movq	%rdx, 16(%rsp)
.Ltmp12:
	.cv_loc	5 3 47 0
	movq	%rdx, (%rsp)
	leaq	_RNvXsj_NtNtNtCsaGRekH07FSF_4core3fmt3num3impiNtB9_7Display3fmt(%rip), %rdx
	movq	%rdx, 8(%rsp)
	.cv_loc	5 3 44 0
	movq	(%rsp), %rdx
	movq	%rdx, (%rcx)
	movq	8(%rsp), %rdx
	movq	%rdx, 8(%rcx)
	.cv_loc	5 3 91 0
	.seh_startepilogue
	addq	$24, %rsp
	.seh_endepilogue
	retq
.Ltmp13:
.Lfunc_end5:
	.seh_endproc

	.def	_RINvMNtNtCsaGRekH07FSF_4core3fmt2rtNtB3_8Argument11new_displayjECs2J74ZzqJeQl_5types;
	.scl	2;
	.type	32;
	.endef
	.section	.text,"xr",one_only,_RINvMNtNtCsaGRekH07FSF_4core3fmt2rtNtB3_8Argument11new_displayjECs2J74ZzqJeQl_5types,unique,6
	.globl	_RINvMNtNtCsaGRekH07FSF_4core3fmt2rtNtB3_8Argument11new_displayjECs2J74ZzqJeQl_5types
	.p2align	4
_RINvMNtNtCsaGRekH07FSF_4core3fmt2rtNtB3_8Argument11new_displayjECs2J74ZzqJeQl_5types:
.Lfunc_begin6:
	.cv_func_id 6
	.cv_loc	6 3 89 0
.seh_proc _RINvMNtNtCsaGRekH07FSF_4core3fmt2rtNtB3_8Argument11new_displayjECs2J74ZzqJeQl_5types
	subq	$24, %rsp
	.seh_stackalloc 24
	.seh_endprologue
	movq	%rcx, %rax
	movq	%rdx, 16(%rsp)
.Ltmp14:
	.cv_loc	6 3 47 0
	movq	%rdx, (%rsp)
	leaq	_RNvXsi_NtNtNtCsaGRekH07FSF_4core3fmt3num3impjNtB9_7Display3fmt(%rip), %rdx
	movq	%rdx, 8(%rsp)
	.cv_loc	6 3 44 0
	movq	(%rsp), %rdx
	movq	%rdx, (%rcx)
	movq	8(%rsp), %rdx
	movq	%rdx, 8(%rcx)
	.cv_loc	6 3 91 0
	.seh_startepilogue
	addq	$24, %rsp
	.seh_endepilogue
	retq
.Ltmp15:
.Lfunc_end6:
	.seh_endproc

	.def	_RINvMNtNtCsaGRekH07FSF_4core3fmt2rtNtB3_8Argument11new_displaylECs2J74ZzqJeQl_5types;
	.scl	2;
	.type	32;
	.endef
	.section	.text,"xr",one_only,_RINvMNtNtCsaGRekH07FSF_4core3fmt2rtNtB3_8Argument11new_displaylECs2J74ZzqJeQl_5types,unique,7
	.globl	_RINvMNtNtCsaGRekH07FSF_4core3fmt2rtNtB3_8Argument11new_displaylECs2J74ZzqJeQl_5types
	.p2align	4
_RINvMNtNtCsaGRekH07FSF_4core3fmt2rtNtB3_8Argument11new_displaylECs2J74ZzqJeQl_5types:
.Lfunc_begin7:
	.cv_func_id 7
	.cv_loc	7 3 89 0
.seh_proc _RINvMNtNtCsaGRekH07FSF_4core3fmt2rtNtB3_8Argument11new_displaylECs2J74ZzqJeQl_5types
	subq	$24, %rsp
	.seh_stackalloc 24
	.seh_endprologue
	movq	%rcx, %rax
	movq	%rdx, 16(%rsp)
.Ltmp16:
	.cv_loc	7 3 47 0
	movq	%rdx, (%rsp)
	leaq	_RNvXs9_NtNtNtCsaGRekH07FSF_4core3fmt3num3implNtB9_7Display3fmt(%rip), %rdx
	movq	%rdx, 8(%rsp)
	.cv_loc	7 3 44 0
	movq	(%rsp), %rdx
	movq	%rdx, (%rcx)
	movq	8(%rsp), %rdx
	movq	%rdx, 8(%rcx)
	.cv_loc	7 3 91 0
	.seh_startepilogue
	addq	$24, %rsp
	.seh_endepilogue
	retq
.Ltmp17:
.Lfunc_end7:
	.seh_endproc

	.def	_RINvMNtNtCsaGRekH07FSF_4core3fmt2rtNtB3_8Argument11new_displaymECs2J74ZzqJeQl_5types;
	.scl	2;
	.type	32;
	.endef
	.section	.text,"xr",one_only,_RINvMNtNtCsaGRekH07FSF_4core3fmt2rtNtB3_8Argument11new_displaymECs2J74ZzqJeQl_5types,unique,8
	.globl	_RINvMNtNtCsaGRekH07FSF_4core3fmt2rtNtB3_8Argument11new_displaymECs2J74ZzqJeQl_5types
	.p2align	4
_RINvMNtNtCsaGRekH07FSF_4core3fmt2rtNtB3_8Argument11new_displaymECs2J74ZzqJeQl_5types:
.Lfunc_begin8:
	.cv_func_id 8
	.cv_loc	8 3 89 0
.seh_proc _RINvMNtNtCsaGRekH07FSF_4core3fmt2rtNtB3_8Argument11new_displaymECs2J74ZzqJeQl_5types
	subq	$24, %rsp
	.seh_stackalloc 24
	.seh_endprologue
	movq	%rcx, %rax
	movq	%rdx, 16(%rsp)
.Ltmp18:
	.cv_loc	8 3 47 0
	movq	%rdx, (%rsp)
	leaq	_RNvXs8_NtNtNtCsaGRekH07FSF_4core3fmt3num3impmNtB9_7Display3fmt(%rip), %rdx
	movq	%rdx, 8(%rsp)
	.cv_loc	8 3 44 0
	movq	(%rsp), %rdx
	movq	%rdx, (%rcx)
	movq	8(%rsp), %rdx
	movq	%rdx, 8(%rcx)
	.cv_loc	8 3 91 0
	.seh_startepilogue
	addq	$24, %rsp
	.seh_endepilogue
	retq
.Ltmp19:
.Lfunc_end8:
	.seh_endproc

	.def	_RINvMNtNtCsaGRekH07FSF_4core3fmt2rtNtB3_8Argument11new_displaynECs2J74ZzqJeQl_5types;
	.scl	2;
	.type	32;
	.endef
	.section	.text,"xr",one_only,_RINvMNtNtCsaGRekH07FSF_4core3fmt2rtNtB3_8Argument11new_displaynECs2J74ZzqJeQl_5types,unique,9
	.globl	_RINvMNtNtCsaGRekH07FSF_4core3fmt2rtNtB3_8Argument11new_displaynECs2J74ZzqJeQl_5types
	.p2align	4
_RINvMNtNtCsaGRekH07FSF_4core3fmt2rtNtB3_8Argument11new_displaynECs2J74ZzqJeQl_5types:
.Lfunc_begin9:
	.cv_func_id 9
	.cv_loc	9 3 89 0
.seh_proc _RINvMNtNtCsaGRekH07FSF_4core3fmt2rtNtB3_8Argument11new_displaynECs2J74ZzqJeQl_5types
	subq	$24, %rsp
	.seh_stackalloc 24
	.seh_endprologue
	movq	%rcx, %rax
	movq	%rdx, 16(%rsp)
.Ltmp20:
	.cv_loc	9 3 47 0
	movq	%rdx, (%rsp)
	leaq	_RNvXs_NtNtCsaGRekH07FSF_4core3fmt3numnNtB6_7Display3fmt(%rip), %rdx
	movq	%rdx, 8(%rsp)
	.cv_loc	9 3 44 0
	movq	(%rsp), %rdx
	movq	%rdx, (%rcx)
	movq	8(%rsp), %rdx
	movq	%rdx, 8(%rcx)
	.cv_loc	9 3 91 0
	.seh_startepilogue
	addq	$24, %rsp
	.seh_endepilogue
	retq
.Ltmp21:
.Lfunc_end9:
	.seh_endproc

	.def	_RINvMNtNtCsaGRekH07FSF_4core3fmt2rtNtB3_8Argument11new_displayoECs2J74ZzqJeQl_5types;
	.scl	2;
	.type	32;
	.endef
	.section	.text,"xr",one_only,_RINvMNtNtCsaGRekH07FSF_4core3fmt2rtNtB3_8Argument11new_displayoECs2J74ZzqJeQl_5types,unique,10
	.globl	_RINvMNtNtCsaGRekH07FSF_4core3fmt2rtNtB3_8Argument11new_displayoECs2J74ZzqJeQl_5types
	.p2align	4
_RINvMNtNtCsaGRekH07FSF_4core3fmt2rtNtB3_8Argument11new_displayoECs2J74ZzqJeQl_5types:
.Lfunc_begin10:
	.cv_func_id 10
	.cv_loc	10 3 89 0
.seh_proc _RINvMNtNtCsaGRekH07FSF_4core3fmt2rtNtB3_8Argument11new_displayoECs2J74ZzqJeQl_5types
	subq	$24, %rsp
	.seh_stackalloc 24
	.seh_endprologue
	movq	%rcx, %rax
	movq	%rdx, 16(%rsp)
.Ltmp22:
	.cv_loc	10 3 47 0
	movq	%rdx, (%rsp)
	leaq	_RNvXNtNtCsaGRekH07FSF_4core3fmt3numoNtB4_7Display3fmt(%rip), %rdx
	movq	%rdx, 8(%rsp)
	.cv_loc	10 3 44 0
	movq	(%rsp), %rdx
	movq	%rdx, (%rcx)
	movq	8(%rsp), %rdx
	movq	%rdx, 8(%rcx)
	.cv_loc	10 3 91 0
	.seh_startepilogue
	addq	$24, %rsp
	.seh_endepilogue
	retq
.Ltmp23:
.Lfunc_end10:
	.seh_endproc

	.def	_RINvMNtNtCsaGRekH07FSF_4core3fmt2rtNtB3_8Argument11new_displaysECs2J74ZzqJeQl_5types;
	.scl	2;
	.type	32;
	.endef
	.section	.text,"xr",one_only,_RINvMNtNtCsaGRekH07FSF_4core3fmt2rtNtB3_8Argument11new_displaysECs2J74ZzqJeQl_5types,unique,11
	.globl	_RINvMNtNtCsaGRekH07FSF_4core3fmt2rtNtB3_8Argument11new_displaysECs2J74ZzqJeQl_5types
	.p2align	4
_RINvMNtNtCsaGRekH07FSF_4core3fmt2rtNtB3_8Argument11new_displaysECs2J74ZzqJeQl_5types:
.Lfunc_begin11:
	.cv_func_id 11
	.cv_loc	11 3 89 0
.seh_proc _RINvMNtNtCsaGRekH07FSF_4core3fmt2rtNtB3_8Argument11new_displaysECs2J74ZzqJeQl_5types
	subq	$24, %rsp
	.seh_stackalloc 24
	.seh_endprologue
	movq	%rcx, %rax
	movq	%rdx, 16(%rsp)
.Ltmp24:
	.cv_loc	11 3 47 0
	movq	%rdx, (%rsp)
	leaq	_RNvXs4_NtNtNtCsaGRekH07FSF_4core3fmt3num3impsNtB9_7Display3fmt(%rip), %rdx
	movq	%rdx, 8(%rsp)
	.cv_loc	11 3 44 0
	movq	(%rsp), %rdx
	movq	%rdx, (%rcx)
	movq	8(%rsp), %rdx
	movq	%rdx, 8(%rcx)
	.cv_loc	11 3 91 0
	.seh_startepilogue
	addq	$24, %rsp
	.seh_endepilogue
	retq
.Ltmp25:
.Lfunc_end11:
	.seh_endproc

	.def	_RINvMNtNtCsaGRekH07FSF_4core3fmt2rtNtB3_8Argument11new_displaytECs2J74ZzqJeQl_5types;
	.scl	2;
	.type	32;
	.endef
	.section	.text,"xr",one_only,_RINvMNtNtCsaGRekH07FSF_4core3fmt2rtNtB3_8Argument11new_displaytECs2J74ZzqJeQl_5types,unique,12
	.globl	_RINvMNtNtCsaGRekH07FSF_4core3fmt2rtNtB3_8Argument11new_displaytECs2J74ZzqJeQl_5types
	.p2align	4
_RINvMNtNtCsaGRekH07FSF_4core3fmt2rtNtB3_8Argument11new_displaytECs2J74ZzqJeQl_5types:
.Lfunc_begin12:
	.cv_func_id 12
	.cv_loc	12 3 89 0
.seh_proc _RINvMNtNtCsaGRekH07FSF_4core3fmt2rtNtB3_8Argument11new_displaytECs2J74ZzqJeQl_5types
	subq	$24, %rsp
	.seh_stackalloc 24
	.seh_endprologue
	movq	%rcx, %rax
	movq	%rdx, 16(%rsp)
.Ltmp26:
	.cv_loc	12 3 47 0
	movq	%rdx, (%rsp)
	leaq	_RNvXs3_NtNtNtCsaGRekH07FSF_4core3fmt3num3imptNtB9_7Display3fmt(%rip), %rdx
	movq	%rdx, 8(%rsp)
	.cv_loc	12 3 44 0
	movq	(%rsp), %rdx
	movq	%rdx, (%rcx)
	movq	8(%rsp), %rdx
	movq	%rdx, 8(%rcx)
	.cv_loc	12 3 91 0
	.seh_startepilogue
	addq	$24, %rsp
	.seh_endepilogue
	retq
.Ltmp27:
.Lfunc_end12:
	.seh_endproc

	.def	_RINvMNtNtCsaGRekH07FSF_4core3fmt2rtNtB3_8Argument11new_displayxECs2J74ZzqJeQl_5types;
	.scl	2;
	.type	32;
	.endef
	.section	.text,"xr",one_only,_RINvMNtNtCsaGRekH07FSF_4core3fmt2rtNtB3_8Argument11new_displayxECs2J74ZzqJeQl_5types,unique,13
	.globl	_RINvMNtNtCsaGRekH07FSF_4core3fmt2rtNtB3_8Argument11new_displayxECs2J74ZzqJeQl_5types
	.p2align	4
_RINvMNtNtCsaGRekH07FSF_4core3fmt2rtNtB3_8Argument11new_displayxECs2J74ZzqJeQl_5types:
.Lfunc_begin13:
	.cv_func_id 13
	.cv_loc	13 3 89 0
.seh_proc _RINvMNtNtCsaGRekH07FSF_4core3fmt2rtNtB3_8Argument11new_displayxECs2J74ZzqJeQl_5types
	subq	$24, %rsp
	.seh_stackalloc 24
	.seh_endprologue
	movq	%rcx, %rax
	movq	%rdx, 16(%rsp)
.Ltmp28:
	.cv_loc	13 3 47 0
	movq	%rdx, (%rsp)
	leaq	_RNvXse_NtNtNtCsaGRekH07FSF_4core3fmt3num3impxNtB9_7Display3fmt(%rip), %rdx
	movq	%rdx, 8(%rsp)
	.cv_loc	13 3 44 0
	movq	(%rsp), %rdx
	movq	%rdx, (%rcx)
	movq	8(%rsp), %rdx
	movq	%rdx, 8(%rcx)
	.cv_loc	13 3 91 0
	.seh_startepilogue
	addq	$24, %rsp
	.seh_endepilogue
	retq
.Ltmp29:
.Lfunc_end13:
	.seh_endproc

	.def	_RINvMNtNtCsaGRekH07FSF_4core3fmt2rtNtB3_8Argument11new_displayyECs2J74ZzqJeQl_5types;
	.scl	2;
	.type	32;
	.endef
	.section	.text,"xr",one_only,_RINvMNtNtCsaGRekH07FSF_4core3fmt2rtNtB3_8Argument11new_displayyECs2J74ZzqJeQl_5types,unique,14
	.globl	_RINvMNtNtCsaGRekH07FSF_4core3fmt2rtNtB3_8Argument11new_displayyECs2J74ZzqJeQl_5types
	.p2align	4
_RINvMNtNtCsaGRekH07FSF_4core3fmt2rtNtB3_8Argument11new_displayyECs2J74ZzqJeQl_5types:
.Lfunc_begin14:
	.cv_func_id 14
	.cv_loc	14 3 89 0
.seh_proc _RINvMNtNtCsaGRekH07FSF_4core3fmt2rtNtB3_8Argument11new_displayyECs2J74ZzqJeQl_5types
	subq	$24, %rsp
	.seh_stackalloc 24
	.seh_endprologue
	movq	%rcx, %rax
	movq	%rdx, 16(%rsp)
.Ltmp30:
	.cv_loc	14 3 47 0
	movq	%rdx, (%rsp)
	leaq	_RNvXsd_NtNtNtCsaGRekH07FSF_4core3fmt3num3impyNtB9_7Display3fmt(%rip), %rdx
	movq	%rdx, 8(%rsp)
	.cv_loc	14 3 44 0
	movq	(%rsp), %rdx
	movq	%rdx, (%rcx)
	movq	8(%rsp), %rdx
	movq	%rdx, 8(%rcx)
	.cv_loc	14 3 91 0
	.seh_startepilogue
	addq	$24, %rsp
	.seh_endepilogue
	retq
.Ltmp31:
.Lfunc_end14:
	.seh_endproc

	.def	_RINvMs2_NtCsaGRekH07FSF_4core3fmtNtB6_9Arguments3newKj3_Kj2_ECs2J74ZzqJeQl_5types;
	.scl	2;
	.type	32;
	.endef
	.section	.text,"xr",one_only,_RINvMs2_NtCsaGRekH07FSF_4core3fmtNtB6_9Arguments3newKj3_Kj2_ECs2J74ZzqJeQl_5types,unique,15
	.globl	_RINvMs2_NtCsaGRekH07FSF_4core3fmtNtB6_9Arguments3newKj3_Kj2_ECs2J74ZzqJeQl_5types
	.p2align	4
_RINvMs2_NtCsaGRekH07FSF_4core3fmtNtB6_9Arguments3newKj3_Kj2_ECs2J74ZzqJeQl_5types:
.Lfunc_begin15:
	.cv_func_id 15
	.cv_file	4 "/rustc/1be6b13be73dc12e98e51b403add4c41a0b77759\\library\\core\\src\\fmt\\mod.rs" "004B340B60BE98779A7B03AD5F8293A60BCDF0BC93BB537FE628B891B1ABCEA6" 3
	.cv_loc	15 4 729 0
.seh_proc _RINvMs2_NtCsaGRekH07FSF_4core3fmtNtB6_9Arguments3newKj3_Kj2_ECs2J74ZzqJeQl_5types
	subq	$16, %rsp
	.seh_stackalloc 16
	.seh_endprologue
	movq	%rcx, %rax
	movq	%rax, (%rsp)
	movq	%rdx, 8(%rsp)
	.cv_loc	15 4 735 0
	.seh_startepilogue
.Ltmp32:
	addq	$16, %rsp
	.seh_endepilogue
	retq
.Ltmp33:
.Lfunc_end15:
	.seh_endproc

	.def	_RINvMsj_NtCsdKWIjqbzJ9K_5alloc3vecINtB6_3VecReE16extend_desugaredINtNtNtNtCsaGRekH07FSF_4core4iter8adapters3rev3RevNtNtNtB1a_3str4iter15SplitWhitespaceEECs2J74ZzqJeQl_5types;
	.scl	2;
	.type	32;
	.endef
	.section	.text,"xr",one_only,_RINvMsj_NtCsdKWIjqbzJ9K_5alloc3vecINtB6_3VecReE16extend_desugaredINtNtNtNtCsaGRekH07FSF_4core4iter8adapters3rev3RevNtNtNtB1a_3str4iter15SplitWhitespaceEECs2J74ZzqJeQl_5types,unique,16
	.globl	_RINvMsj_NtCsdKWIjqbzJ9K_5alloc3vecINtB6_3VecReE16extend_desugaredINtNtNtNtCsaGRekH07FSF_4core4iter8adapters3rev3RevNtNtNtB1a_3str4iter15SplitWhitespaceEECs2J74ZzqJeQl_5types
	.p2align	4
_RINvMsj_NtCsdKWIjqbzJ9K_5alloc3vecINtB6_3VecReE16extend_desugaredINtNtNtNtCsaGRekH07FSF_4core4iter8adapters3rev3RevNtNtNtB1a_3str4iter15SplitWhitespaceEECs2J74ZzqJeQl_5types:
.Lfunc_begin16:
	.cv_func_id 16
	.cv_file	5 "/rustc/1be6b13be73dc12e98e51b403add4c41a0b77759\\library\\alloc\\src\\vec\\mod.rs" "725486C587767A9A0A467D2B8AB0AE9A8127565F2EF56C8DC8504DE1FC32EFB1" 3
	.cv_loc	16 5 3815 0
.seh_proc _RINvMsj_NtCsdKWIjqbzJ9K_5alloc3vecINtB6_3VecReE16extend_desugaredINtNtNtNtCsaGRekH07FSF_4core4iter8adapters3rev3RevNtNtNtB1a_3str4iter15SplitWhitespaceEECs2J74ZzqJeQl_5types
	subq	$264, %rsp
	.seh_stackalloc 264
	.seh_endprologue
	movq	%rdx, 64(%rsp)
.Ltmp34:
	movq	%rcx, 72(%rsp)
	movq	%rcx, 136(%rsp)
.Ltmp35:
	.cv_file	6 "/rustc/1be6b13be73dc12e98e51b403add4c41a0b77759\\library\\alloc\\src\\raw_vec\\mod.rs" "7F94665B803A970D83F99D3A451A92AF6B210BAAA8C9685B1F50D265C836F38B" 3
	.cv_inline_site_id 17 within 16 inlined_at 5 3825 0
	.cv_inline_site_id 18 within 17 inlined_at 5 1276 0
	.cv_inline_site_id 19 within 18 inlined_at 6 295 0
	.cv_loc	19 6 508 0
	movq	$16, 144(%rsp)
.Ltmp36:
	.cv_file	7 "/rustc/1be6b13be73dc12e98e51b403add4c41a0b77759\\library\\core\\src\\num\\uint_macros.rs" "9DAC70CF7D6E99DE569F002DB2DE562FD5C425A45C44656B51588D1E5A79C786" 3
	.cv_inline_site_id 20 within 16 inlined_at 5 3827 0
	.cv_loc	20 7 2159 0
	movq	$1, 152(%rsp)
.Ltmp37:
	.cv_inline_site_id 21 within 16 inlined_at 5 3834 0
	.cv_inline_site_id 22 within 21 inlined_at 5 1944 0
	.cv_inline_site_id 23 within 22 inlined_at 5 1276 0
	.cv_inline_site_id 24 within 23 inlined_at 6 295 0
	.cv_loc	24 6 508 0
	movq	$16, 160(%rsp)
.Ltmp38:
.LBB16_1:
	.cv_loc	16 5 3823 0
	movq	64(%rsp), %rcx
	callq	_RNvXs_NtNtNtCsaGRekH07FSF_4core4iter8adapters3revINtB4_3RevNtNtNtBa_3str4iter15SplitWhitespaceENtNtNtB8_6traits8iterator8Iterator4nextCs2J74ZzqJeQl_5types
	movq	%rax, 80(%rsp)
	movq	%rdx, 88(%rsp)
	movq	80(%rsp), %rdx
	movl	$1, %eax
	xorl	%ecx, %ecx
	cmpq	$0, %rdx
	cmoveq	%rcx, %rax
	testq	$1, %rax
	je	.LBB16_3
.Ltmp39:
	movq	72(%rsp), %rcx
	movq	80(%rsp), %rdx
	movq	%rdx, 40(%rsp)
	movq	88(%rsp), %rax
	movq	%rax, 48(%rsp)
	movq	%rdx, 168(%rsp)
	movq	%rax, 176(%rsp)
.Ltmp40:
	.cv_inline_site_id 25 within 16 inlined_at 5 3824 0
	.cv_loc	25 5 2856 0
	movq	16(%rcx), %rax
	movq	%rax, 56(%rsp)
	movq	%rax, 184(%rsp)
.Ltmp41:
	.cv_loc	19 6 509 0
	movq	(%rcx), %rcx
	movq	%rcx, 192(%rsp)
.Ltmp42:
	.cv_file	8 "/rustc/1be6b13be73dc12e98e51b403add4c41a0b77759\\library\\core\\src\\num\\niche_types.rs" "9ADB5202E2B7649696D4745B162FB461FAAD2DC8110D493F9DCBA34A09BE503D" 3
	.cv_inline_site_id 26 within 19 inlined_at 6 509 0
	.cv_loc	26 8 61 0
	movq	%rcx, 96(%rsp)
.Ltmp43:
	.cv_loc	16 5 3825 0
	cmpq	96(%rsp), %rax
	je	.LBB16_5
	jmp	.LBB16_4
.Ltmp44:
.LBB16_3:
	.cv_loc	16 5 3837 0
	.seh_startepilogue
	addq	$264, %rsp
	.seh_endepilogue
	retq
.Ltmp45:
.LBB16_4:
	.cv_loc	16 5 3825 0
	jmp	.LBB16_6
.Ltmp46:
.LBB16_5:
	.cv_loc	16 5 3826 0
	movq	64(%rsp), %rdx
	leaq	104(%rsp), %rcx
	callq	_RNvXs_NtNtNtCsaGRekH07FSF_4core4iter8adapters3revINtB4_3RevNtNtNtBa_3str4iter15SplitWhitespaceENtNtNtB8_6traits8iterator8Iterator9size_hintCs2J74ZzqJeQl_5types
	movq	72(%rsp), %rcx
	movq	104(%rsp), %rax
	movq	%rax, 200(%rsp)
.Ltmp47:
	.cv_loc	20 7 2160 0
	incq	%rax
	movq	$-1, %rdx
	cmoveq	%rdx, %rax
	movq	%rax, 208(%rsp)
	movq	208(%rsp), %rdx
.Ltmp48:
	.cv_loc	16 5 3827 0
	callq	_RNvMs_NtCsdKWIjqbzJ9K_5alloc3vecINtB4_3VecReE7reserveCs2J74ZzqJeQl_5types
.Ltmp49:
.LBB16_6:
	.cv_inline_site_id 27 within 16 inlined_at 5 3830 0
	.cv_inline_site_id 28 within 27 inlined_at 5 1779 0
	.cv_inline_site_id 29 within 28 inlined_at 6 282 0
	.cv_inline_site_id 30 within 29 inlined_at 6 499 0
	.cv_loc	30 6 504 0
	movq	72(%rsp), %rax
	movq	56(%rsp), %rcx
	movq	48(%rsp), %r8
	movq	40(%rsp), %r9
.Ltmp50:
	movq	8(%rax), %rdx
.Ltmp51:
	.cv_file	9 "/rustc/1be6b13be73dc12e98e51b403add4c41a0b77759\\library\\core\\src\\ptr\\non_null.rs" "B7A81D53F4E72493B41F825175D330C36338A4ADB5DF9FFFBDA2EFA6154D068E" 3
	.cv_loc	30 9 408 0
	movq	%rdx, 216(%rsp)
.Ltmp52:
	.cv_file	10 "/rustc/1be6b13be73dc12e98e51b403add4c41a0b77759\\library\\core\\src\\ptr\\mut_ptr.rs" "6BB22207AC1DD7EB9C184B36CD5EA444CDDA4C4A5F9D5011E4ECA2CB02521CB9" 3
	.cv_loc	27 10 961 0
	movq	%rcx, %r10
	shlq	$4, %r10
	addq	%r10, %rdx
	movq	%rdx, 224(%rsp)
.Ltmp53:
	.cv_loc	16 5 3830 0
	movq	%r9, 232(%rsp)
	movq	%r8, 240(%rsp)
.Ltmp54:
	.cv_file	11 "/rustc/1be6b13be73dc12e98e51b403add4c41a0b77759\\library\\core\\src\\ptr\\mod.rs" "842EDC6559CC873FD609901E62671D8823A18FFE2B029C018616C29ECDDA5394" 3
	.cv_loc	27 11 1908 0
	movq	%r9, (%rdx)
	movq	%r8, 8(%rdx)
.Ltmp55:
	.cv_loc	16 5 3834 0
	addq	$1, %rcx
	movq	%rcx, 32(%rsp)
	movq	%rcx, 248(%rsp)
.Ltmp56:
	.cv_loc	24 6 509 0
	movq	(%rax), %rax
	movq	%rax, 256(%rsp)
.Ltmp57:
	.cv_inline_site_id 31 within 24 inlined_at 6 509 0
	.cv_loc	31 8 61 0
	movq	%rax, 128(%rsp)
.Ltmp58:
	.cv_loc	21 5 1941 0
	movq	128(%rsp), %rdx
	leaq	anon.d3fe902d2fc543e5a5ebd510b0621c19.1(%rip), %r8
	callq	_RNvNvMs_NtCsdKWIjqbzJ9K_5alloc3vecINtB6_3VecppE7set_len18precondition_checkCs2J74ZzqJeQl_5types
	movq	32(%rsp), %rcx
	movq	72(%rsp), %rax
	.cv_loc	21 5 1947 0
	movq	%rcx, 16(%rax)
.Ltmp59:
	.cv_loc	16 5 3823 0
	jmp	.LBB16_1
.Ltmp60:
.Lfunc_end16:
	.seh_endproc

	.def	_RINvNtCsaGRekH07FSF_4core3ptr13drop_in_placeINtNtCsdKWIjqbzJ9K_5alloc3vec3VecReEECs2J74ZzqJeQl_5types;
	.scl	2;
	.type	32;
	.endef
	.section	.text,"xr",one_only,_RINvNtCsaGRekH07FSF_4core3ptr13drop_in_placeINtNtCsdKWIjqbzJ9K_5alloc3vec3VecReEECs2J74ZzqJeQl_5types,unique,17
	.globl	_RINvNtCsaGRekH07FSF_4core3ptr13drop_in_placeINtNtCsdKWIjqbzJ9K_5alloc3vec3VecReEECs2J74ZzqJeQl_5types
	.p2align	4
_RINvNtCsaGRekH07FSF_4core3ptr13drop_in_placeINtNtCsdKWIjqbzJ9K_5alloc3vec3VecReEECs2J74ZzqJeQl_5types:
.Lfunc_begin17:
	.cv_func_id 32
	.cv_loc	32 11 805 0
.seh_proc _RINvNtCsaGRekH07FSF_4core3ptr13drop_in_placeINtNtCsdKWIjqbzJ9K_5alloc3vec3VecReEECs2J74ZzqJeQl_5types
	subq	$56, %rsp
	.seh_stackalloc 56
	.seh_endprologue
	movq	%rcx, 40(%rsp)
	movq	%rcx, 48(%rsp)
.Ltmp61:
	callq	_RNvXso_NtCsdKWIjqbzJ9K_5alloc3vecINtB5_3VecReENtNtNtCsaGRekH07FSF_4core3ops4drop4Drop4dropCs2J74ZzqJeQl_5types
	movq	40(%rsp), %rcx
	callq	_RINvNtCsaGRekH07FSF_4core3ptr13drop_in_placeINtNtCsdKWIjqbzJ9K_5alloc7raw_vec6RawVecReEECs2J74ZzqJeQl_5types
	nop
	.seh_startepilogue
	addq	$56, %rsp
	.seh_endepilogue
	retq
.Ltmp62:
.Lfunc_end17:
	.seh_endproc

	.def	_RINvNtCsaGRekH07FSF_4core3ptr13drop_in_placeINtNtCsdKWIjqbzJ9K_5alloc3vec3VechEECs2J74ZzqJeQl_5types;
	.scl	2;
	.type	32;
	.endef
	.section	.text,"xr",one_only,_RINvNtCsaGRekH07FSF_4core3ptr13drop_in_placeINtNtCsdKWIjqbzJ9K_5alloc3vec3VechEECs2J74ZzqJeQl_5types,unique,18
	.globl	_RINvNtCsaGRekH07FSF_4core3ptr13drop_in_placeINtNtCsdKWIjqbzJ9K_5alloc3vec3VechEECs2J74ZzqJeQl_5types
	.p2align	4
_RINvNtCsaGRekH07FSF_4core3ptr13drop_in_placeINtNtCsdKWIjqbzJ9K_5alloc3vec3VechEECs2J74ZzqJeQl_5types:
.Lfunc_begin18:
	.cv_func_id 33
	.cv_loc	33 11 805 0
.seh_proc _RINvNtCsaGRekH07FSF_4core3ptr13drop_in_placeINtNtCsdKWIjqbzJ9K_5alloc3vec3VechEECs2J74ZzqJeQl_5types
	subq	$56, %rsp
	.seh_stackalloc 56
	.seh_endprologue
	movq	%rcx, 40(%rsp)
	movq	%rcx, 48(%rsp)
.Ltmp63:
	callq	_RNvXso_NtCsdKWIjqbzJ9K_5alloc3vecINtB5_3VechENtNtNtCsaGRekH07FSF_4core3ops4drop4Drop4dropCs2J74ZzqJeQl_5types
	movq	40(%rsp), %rcx
	callq	_RINvNtCsaGRekH07FSF_4core3ptr13drop_in_placeINtNtCsdKWIjqbzJ9K_5alloc7raw_vec6RawVechEECs2J74ZzqJeQl_5types
	nop
	.seh_startepilogue
	addq	$56, %rsp
	.seh_endepilogue
	retq
.Ltmp64:
.Lfunc_end18:
	.seh_endproc

	.def	_RINvNtCsaGRekH07FSF_4core3ptr13drop_in_placeINtNtCsdKWIjqbzJ9K_5alloc7raw_vec6RawVecReEECs2J74ZzqJeQl_5types;
	.scl	2;
	.type	32;
	.endef
	.section	.text,"xr",one_only,_RINvNtCsaGRekH07FSF_4core3ptr13drop_in_placeINtNtCsdKWIjqbzJ9K_5alloc7raw_vec6RawVecReEECs2J74ZzqJeQl_5types,unique,19
	.globl	_RINvNtCsaGRekH07FSF_4core3ptr13drop_in_placeINtNtCsdKWIjqbzJ9K_5alloc7raw_vec6RawVecReEECs2J74ZzqJeQl_5types
	.p2align	4
_RINvNtCsaGRekH07FSF_4core3ptr13drop_in_placeINtNtCsdKWIjqbzJ9K_5alloc7raw_vec6RawVecReEECs2J74ZzqJeQl_5types:
.Lfunc_begin19:
	.cv_func_id 34
	.cv_loc	34 11 805 0
.seh_proc _RINvNtCsaGRekH07FSF_4core3ptr13drop_in_placeINtNtCsdKWIjqbzJ9K_5alloc7raw_vec6RawVecReEECs2J74ZzqJeQl_5types
	subq	$40, %rsp
	.seh_stackalloc 40
	.seh_endprologue
	movq	%rcx, 32(%rsp)
.Ltmp65:
	callq	_RNvXs1_NtCsdKWIjqbzJ9K_5alloc7raw_vecINtB5_6RawVecReENtNtNtCsaGRekH07FSF_4core3ops4drop4Drop4dropCs2J74ZzqJeQl_5types
	nop
	.seh_startepilogue
	addq	$40, %rsp
	.seh_endepilogue
	retq
.Ltmp66:
.Lfunc_end19:
	.seh_endproc

	.def	_RINvNtCsaGRekH07FSF_4core3ptr13drop_in_placeINtNtCsdKWIjqbzJ9K_5alloc7raw_vec6RawVechEECs2J74ZzqJeQl_5types;
	.scl	2;
	.type	32;
	.endef
	.section	.text,"xr",one_only,_RINvNtCsaGRekH07FSF_4core3ptr13drop_in_placeINtNtCsdKWIjqbzJ9K_5alloc7raw_vec6RawVechEECs2J74ZzqJeQl_5types,unique,20
	.globl	_RINvNtCsaGRekH07FSF_4core3ptr13drop_in_placeINtNtCsdKWIjqbzJ9K_5alloc7raw_vec6RawVechEECs2J74ZzqJeQl_5types
	.p2align	4
_RINvNtCsaGRekH07FSF_4core3ptr13drop_in_placeINtNtCsdKWIjqbzJ9K_5alloc7raw_vec6RawVechEECs2J74ZzqJeQl_5types:
.Lfunc_begin20:
	.cv_func_id 35
	.cv_loc	35 11 805 0
.seh_proc _RINvNtCsaGRekH07FSF_4core3ptr13drop_in_placeINtNtCsdKWIjqbzJ9K_5alloc7raw_vec6RawVechEECs2J74ZzqJeQl_5types
	subq	$40, %rsp
	.seh_stackalloc 40
	.seh_endprologue
	movq	%rcx, 32(%rsp)
.Ltmp67:
	callq	_RNvXs1_NtCsdKWIjqbzJ9K_5alloc7raw_vecINtB5_6RawVechENtNtNtCsaGRekH07FSF_4core3ops4drop4Drop4dropCs2J74ZzqJeQl_5types
	nop
	.seh_startepilogue
	addq	$40, %rsp
	.seh_endepilogue
	retq
.Ltmp68:
.Lfunc_end20:
	.seh_endproc

	.def	_RINvNtCsaGRekH07FSF_4core3ptr13drop_in_placeINtNtNtB4_5array4iter8IntoItercKj3_EECs2J74ZzqJeQl_5types;
	.scl	2;
	.type	32;
	.endef
	.section	.text,"xr",one_only,_RINvNtCsaGRekH07FSF_4core3ptr13drop_in_placeINtNtNtB4_5array4iter8IntoItercKj3_EECs2J74ZzqJeQl_5types,unique,21
	.globl	_RINvNtCsaGRekH07FSF_4core3ptr13drop_in_placeINtNtNtB4_5array4iter8IntoItercKj3_EECs2J74ZzqJeQl_5types
	.p2align	4
_RINvNtCsaGRekH07FSF_4core3ptr13drop_in_placeINtNtNtB4_5array4iter8IntoItercKj3_EECs2J74ZzqJeQl_5types:
.Lfunc_begin21:
	.cv_func_id 36
	.cv_loc	36 11 805 0
.seh_proc _RINvNtCsaGRekH07FSF_4core3ptr13drop_in_placeINtNtNtB4_5array4iter8IntoItercKj3_EECs2J74ZzqJeQl_5types
	subq	$40, %rsp
	.seh_stackalloc 40
	.seh_endprologue
	movq	%rcx, 32(%rsp)
.Ltmp69:
	callq	_RNvXs4_NtNtCsaGRekH07FSF_4core5array4iterINtB5_8IntoItercKj3_ENtNtNtB9_3ops4drop4Drop4dropCs2J74ZzqJeQl_5types
	nop
	.seh_startepilogue
	addq	$40, %rsp
	.seh_endepilogue
	retq
.Ltmp70:
.Lfunc_end21:
	.seh_endproc

	.def	_RINvNtCsaGRekH07FSF_4core3ptr13drop_in_placeNtNtB4_4char11ToUppercaseECs2J74ZzqJeQl_5types;
	.scl	2;
	.type	32;
	.endef
	.section	.text,"xr",one_only,_RINvNtCsaGRekH07FSF_4core3ptr13drop_in_placeNtNtB4_4char11ToUppercaseECs2J74ZzqJeQl_5types,unique,22
	.globl	_RINvNtCsaGRekH07FSF_4core3ptr13drop_in_placeNtNtB4_4char11ToUppercaseECs2J74ZzqJeQl_5types
	.p2align	4
_RINvNtCsaGRekH07FSF_4core3ptr13drop_in_placeNtNtB4_4char11ToUppercaseECs2J74ZzqJeQl_5types:
.Lfunc_begin22:
	.cv_func_id 37
	.cv_loc	37 11 805 0
.seh_proc _RINvNtCsaGRekH07FSF_4core3ptr13drop_in_placeNtNtB4_4char11ToUppercaseECs2J74ZzqJeQl_5types
	subq	$40, %rsp
	.seh_stackalloc 40
	.seh_endprologue
	movq	%rcx, 32(%rsp)
.Ltmp71:
	callq	_RINvNtCsaGRekH07FSF_4core3ptr13drop_in_placeNtNtB4_4char15CaseMappingIterECs2J74ZzqJeQl_5types
	nop
	.seh_startepilogue
	addq	$40, %rsp
	.seh_endepilogue
	retq
.Ltmp72:
.Lfunc_end22:
	.seh_endproc

	.def	_RINvNtCsaGRekH07FSF_4core3ptr13drop_in_placeNtNtB4_4char15CaseMappingIterECs2J74ZzqJeQl_5types;
	.scl	2;
	.type	32;
	.endef
	.section	.text,"xr",one_only,_RINvNtCsaGRekH07FSF_4core3ptr13drop_in_placeNtNtB4_4char15CaseMappingIterECs2J74ZzqJeQl_5types,unique,23
	.globl	_RINvNtCsaGRekH07FSF_4core3ptr13drop_in_placeNtNtB4_4char15CaseMappingIterECs2J74ZzqJeQl_5types
	.p2align	4
_RINvNtCsaGRekH07FSF_4core3ptr13drop_in_placeNtNtB4_4char15CaseMappingIterECs2J74ZzqJeQl_5types:
.Lfunc_begin23:
	.cv_func_id 38
	.cv_loc	38 11 805 0
.seh_proc _RINvNtCsaGRekH07FSF_4core3ptr13drop_in_placeNtNtB4_4char15CaseMappingIterECs2J74ZzqJeQl_5types
	subq	$40, %rsp
	.seh_stackalloc 40
	.seh_endprologue
	movq	%rcx, 32(%rsp)
.Ltmp73:
	callq	_RINvNtCsaGRekH07FSF_4core3ptr13drop_in_placeINtNtNtB4_5array4iter8IntoItercKj3_EECs2J74ZzqJeQl_5types
	nop
	.seh_startepilogue
	addq	$40, %rsp
	.seh_endepilogue
	retq
.Ltmp74:
.Lfunc_end23:
	.seh_endproc

	.def	_RINvNtCsaGRekH07FSF_4core3ptr13drop_in_placeNtNtCsdKWIjqbzJ9K_5alloc6string6StringECs2J74ZzqJeQl_5types;
	.scl	2;
	.type	32;
	.endef
	.section	.text,"xr",one_only,_RINvNtCsaGRekH07FSF_4core3ptr13drop_in_placeNtNtCsdKWIjqbzJ9K_5alloc6string6StringECs2J74ZzqJeQl_5types,unique,24
	.globl	_RINvNtCsaGRekH07FSF_4core3ptr13drop_in_placeNtNtCsdKWIjqbzJ9K_5alloc6string6StringECs2J74ZzqJeQl_5types
	.p2align	4
_RINvNtCsaGRekH07FSF_4core3ptr13drop_in_placeNtNtCsdKWIjqbzJ9K_5alloc6string6StringECs2J74ZzqJeQl_5types:
.Lfunc_begin24:
	.cv_func_id 39
	.cv_loc	39 11 805 0
.seh_proc _RINvNtCsaGRekH07FSF_4core3ptr13drop_in_placeNtNtCsdKWIjqbzJ9K_5alloc6string6StringECs2J74ZzqJeQl_5types
	subq	$40, %rsp
	.seh_stackalloc 40
	.seh_endprologue
	movq	%rcx, 32(%rsp)
.Ltmp75:
	callq	_RINvNtCsaGRekH07FSF_4core3ptr13drop_in_placeINtNtCsdKWIjqbzJ9K_5alloc3vec3VechEECs2J74ZzqJeQl_5types
	nop
	.seh_startepilogue
	addq	$40, %rsp
	.seh_endepilogue
	retq
.Ltmp76:
.Lfunc_end24:
	.seh_endproc

	.def	_RINvNtCsaGRekH07FSF_4core5slice20copy_from_slice_implINtNtNtB4_3mem12maybe_uninit11MaybeUninithEECs2J74ZzqJeQl_5types;
	.scl	2;
	.type	32;
	.endef
	.section	.text,"xr",one_only,_RINvNtCsaGRekH07FSF_4core5slice20copy_from_slice_implINtNtNtB4_3mem12maybe_uninit11MaybeUninithEECs2J74ZzqJeQl_5types,unique,25
	.globl	_RINvNtCsaGRekH07FSF_4core5slice20copy_from_slice_implINtNtNtB4_3mem12maybe_uninit11MaybeUninithEECs2J74ZzqJeQl_5types
	.p2align	4
_RINvNtCsaGRekH07FSF_4core5slice20copy_from_slice_implINtNtNtB4_3mem12maybe_uninit11MaybeUninithEECs2J74ZzqJeQl_5types:
.Lfunc_begin25:
	.cv_func_id 40
	.cv_file	12 "/rustc/1be6b13be73dc12e98e51b403add4c41a0b77759\\library\\core\\src\\slice\\mod.rs" "113443A10EAD03B84D07A2F42F3DD29B0318BD5855D1C2951BDCBED7713357A8" 3
	.cv_loc	40 12 5110 0
.seh_proc _RINvNtCsaGRekH07FSF_4core5slice20copy_from_slice_implINtNtNtB4_3mem12maybe_uninit11MaybeUninithEECs2J74ZzqJeQl_5types
	subq	$152, %rsp
	.seh_stackalloc 152
	.seh_endprologue
	movq	%r9, 56(%rsp)
	movq	%r8, 64(%rsp)
	movq	%rdx, 72(%rsp)
	movq	%rcx, 80(%rsp)
	movq	192(%rsp), %rax
	movq	%rax, 88(%rsp)
	movq	%rcx, 96(%rsp)
	movq	%rdx, 104(%rsp)
	movq	%r8, 112(%rsp)
	movq	%r9, 120(%rsp)
.Ltmp77:
	.cv_loc	40 12 5125 0
	movq	%rdx, 128(%rsp)
	cmpq	%r9, %rdx
	jne	.LBB25_2
	.cv_inline_site_id 41 within 40 inlined_at 12 5133 0
	.cv_loc	41 12 726 0
	movq	80(%rsp), %rax
	movq	64(%rsp), %rcx
.Ltmp78:
	movq	%rcx, 136(%rsp)
.Ltmp79:
	.cv_loc	41 12 757 0
	movq	%rax, 144(%rsp)
.Ltmp80:
	.cv_file	13 "/rustc/1be6b13be73dc12e98e51b403add4c41a0b77759\\library\\core\\src\\ub_checks.rs" "CEE3503B7518535C9C59C2338EB2A416333608E9A28DF4B5AD17924A1880E98E" 3
	.cv_loc	41 13 77 0
	jmp	.LBB25_3
.Ltmp81:
.LBB25_2:
	.cv_loc	40 12 5126 0
	movq	88(%rsp), %r8
	movq	56(%rsp), %rdx
	movq	72(%rsp), %rcx
	callq	_RNvNvNtCsaGRekH07FSF_4core5slice20copy_from_slice_impl17len_mismatch_fail
.LBB25_3:
	.cv_loc	41 13 78 0
	movq	72(%rsp), %r10
	movq	80(%rsp), %rdx
	movq	64(%rsp), %rcx
.Ltmp82:
	movl	$1, %r9d
	leaq	anon.d3fe902d2fc543e5a5ebd510b0621c19.3(%rip), %rax
	movq	%r9, %r8
	movq	%r10, 32(%rsp)
	movq	%rax, 40(%rsp)
	callq	_RNvNvNtCsaGRekH07FSF_4core3ptr19copy_nonoverlapping18precondition_checkCs2J74ZzqJeQl_5types
	.cv_loc	41 11 547 0
	movq	64(%rsp), %rdx
	movq	80(%rsp), %rcx
	movq	72(%rsp), %r8
	shlq	$0, %r8
	callq	memcpy
.Ltmp83:
	.cv_loc	40 12 5135 0
	nop
	.seh_startepilogue
	addq	$152, %rsp
	.seh_endepilogue
	retq
.Ltmp84:
.Lfunc_end25:
	.seh_endproc

	.def	_RINvNtCsdKWIjqbzJ9K_5alloc3str17join_generic_copyehReECs2J74ZzqJeQl_5types;
	.scl	2;
	.type	32;
	.endef
	.section	.text,"xr",one_only,_RINvNtCsdKWIjqbzJ9K_5alloc3str17join_generic_copyehReECs2J74ZzqJeQl_5types,unique,26
	.globl	_RINvNtCsdKWIjqbzJ9K_5alloc3str17join_generic_copyehReECs2J74ZzqJeQl_5types
	.p2align	4
_RINvNtCsdKWIjqbzJ9K_5alloc3str17join_generic_copyehReECs2J74ZzqJeQl_5types:
.Lfunc_begin26:
	.cv_func_id 42
	.cv_file	14 "/rustc/1be6b13be73dc12e98e51b403add4c41a0b77759\\library\\alloc\\src\\str.rs" "02E739DDDE026222B06B9FC8DD1C6A6206F919BB33B2E33DCC6163A24BBD29E2" 3
	.cv_loc	42 14 130 0
.seh_proc _RINvNtCsdKWIjqbzJ9K_5alloc3str17join_generic_copyehReECs2J74ZzqJeQl_5types
	subq	$2312, %rsp
	.seh_stackalloc 2312
	.seh_endprologue
	movq	%r9, 352(%rsp)
	movq	%r8, 360(%rsp)
	movq	%rdx, 368(%rsp)
	movq	%rcx, 376(%rsp)
	movq	%rcx, 384(%rsp)
	movq	2352(%rsp), %rax
	movq	%rax, 392(%rsp)
	movq	%rdx, 1192(%rsp)
	movq	%r8, 1200(%rsp)
	movq	%r9, 1208(%rsp)
	movq	%rax, 1216(%rsp)
.Ltmp85:
	.cv_inline_site_id 43 within 42 inlined_at 14 140 0
	.cv_file	15 "/rustc/1be6b13be73dc12e98e51b403add4c41a0b77759\\library\\core\\src\\slice\\iter\\macros.rs" "E55861F4F8604A0BE99BFCB1F4B23B9F8CEC21B1A5737217FACC845478E8615C" 3
	.cv_inline_site_id 44 within 43 inlined_at 15 174 0
	.cv_loc	44 7 896 0
	movq	$1, 1224(%rsp)
.Ltmp86:
	.cv_inline_site_id 45 within 43 inlined_at 15 184 0
	.cv_loc	45 9 652 0
	movq	$1, 1232(%rsp)
.Ltmp87:
	.cv_inline_site_id 46 within 42 inlined_at 14 154 0
	.cv_loc	46 1 968 0
	leaq	anon.d3fe902d2fc543e5a5ebd510b0621c19.4(%rip), %rax
	movq	%rax, 1240(%rsp)
	movq	$53, 1248(%rsp)
.Ltmp88:
	.cv_inline_site_id 47 within 42 inlined_at 14 158 0
	.cv_inline_site_id 48 within 47 inlined_at 5 1276 0
	.cv_inline_site_id 49 within 48 inlined_at 6 295 0
	.cv_loc	49 6 508 0
	movq	$1, 1256(%rsp)
.Ltmp89:
	.cv_inline_site_id 50 within 42 inlined_at 14 164 0
	.cv_inline_site_id 51 within 50 inlined_at 5 3061 0
	.cv_inline_site_id 52 within 51 inlined_at 6 295 0
	.cv_loc	52 6 508 0
	movq	$1, 1264(%rsp)
.Ltmp90:
	.cv_file	16 "/rustc/1be6b13be73dc12e98e51b403add4c41a0b77759\\library\\core\\src\\slice\\index.rs" "E49DBE39882D407A3354A090A2ACFBC0AF7B9E0063EA8625981A7EDC72A9C460" 3
	.cv_inline_site_id 53 within 50 inlined_at 12 690 0
	.cv_inline_site_id 54 within 53 inlined_at 16 524 0
	.cv_loc	54 16 417 0
	movq	$0, 1272(%rsp)
.Ltmp91:
	.cv_inline_site_id 55 within 54 inlined_at 16 430 0
	.cv_loc	55 16 96 0
	movq	$0, 1280(%rsp)
.Ltmp92:
	.cv_inline_site_id 56 within 42 inlined_at 14 91 0
	.cv_file	17 "/rustc/1be6b13be73dc12e98e51b403add4c41a0b77759\\library\\core\\src\\iter\\adapters\\map.rs" "2A9CB86B5110B292F271EC1CD8904A9BAD27F8D553AF0141837F41E753FE83D3" 3
	.cv_inline_site_id 57 within 56 inlined_at 17 107 0
	.cv_inline_site_id 58 within 57 inlined_at 15 174 0
	.cv_loc	58 7 896 0
	movq	$1, 1288(%rsp)
.Ltmp93:
	.cv_inline_site_id 59 within 57 inlined_at 15 184 0
	.cv_loc	59 9 652 0
	movq	$1, 1296(%rsp)
.Ltmp94:
	.cv_inline_site_id 60 within 42 inlined_at 14 91 0
	.cv_inline_site_id 61 within 60 inlined_at 17 107 0
	.cv_inline_site_id 62 within 61 inlined_at 15 174 0
	.cv_loc	62 7 896 0
	movq	$1, 1304(%rsp)
.Ltmp95:
	.cv_inline_site_id 63 within 61 inlined_at 15 184 0
	.cv_loc	63 9 652 0
	movq	$1, 1312(%rsp)
.Ltmp96:
	.cv_inline_site_id 64 within 42 inlined_at 14 91 0
	.cv_inline_site_id 65 within 64 inlined_at 17 107 0
	.cv_inline_site_id 66 within 65 inlined_at 15 174 0
	.cv_loc	66 7 896 0
	movq	$1, 1320(%rsp)
.Ltmp97:
	.cv_inline_site_id 67 within 65 inlined_at 15 184 0
	.cv_loc	67 9 652 0
	movq	$1, 1328(%rsp)
.Ltmp98:
	.cv_inline_site_id 68 within 42 inlined_at 14 91 0
	.cv_inline_site_id 69 within 68 inlined_at 17 107 0
	.cv_inline_site_id 70 within 69 inlined_at 15 174 0
	.cv_loc	70 7 896 0
	movq	$1, 1336(%rsp)
.Ltmp99:
	.cv_inline_site_id 71 within 69 inlined_at 15 184 0
	.cv_loc	71 9 652 0
	movq	$1, 1344(%rsp)
.Ltmp100:
	.cv_inline_site_id 72 within 42 inlined_at 14 91 0
	.cv_inline_site_id 73 within 72 inlined_at 17 107 0
	.cv_inline_site_id 74 within 73 inlined_at 15 174 0
	.cv_loc	74 7 896 0
	movq	$1, 1352(%rsp)
.Ltmp101:
	.cv_inline_site_id 75 within 73 inlined_at 15 184 0
	.cv_loc	75 9 652 0
	movq	$1, 1360(%rsp)
.Ltmp102:
	.cv_inline_site_id 76 within 42 inlined_at 14 100 0
	.cv_inline_site_id 77 within 76 inlined_at 17 107 0
	.cv_inline_site_id 78 within 77 inlined_at 15 174 0
	.cv_loc	78 7 896 0
	movq	$1, 1368(%rsp)
.Ltmp103:
	.cv_inline_site_id 79 within 77 inlined_at 15 184 0
	.cv_loc	79 9 652 0
	movq	$1, 1376(%rsp)
.Ltmp104:
	.cv_inline_site_id 80 within 42 inlined_at 14 183 0
	.cv_inline_site_id 81 within 80 inlined_at 5 1944 0
	.cv_inline_site_id 82 within 81 inlined_at 5 1276 0
	.cv_inline_site_id 83 within 82 inlined_at 6 295 0
	.cv_loc	83 6 508 0
	movq	$1, 1384(%rsp)
.Ltmp105:
	.cv_file	18 "/rustc/1be6b13be73dc12e98e51b403add4c41a0b77759\\library\\core\\src\\slice\\iter.rs" "FEAB1D5BF81D74F86E525B7E411CB85D430962763335C7885450B1D94FBD7325" 3
	.cv_inline_site_id 84 within 42 inlined_at 14 137 0
	.cv_inline_site_id 85 within 84 inlined_at 12 1040 0
	.cv_loc	85 18 97 0
	movq	%r8, 1392(%rsp)
.Ltmp106:
	.cv_inline_site_id 86 within 85 inlined_at 18 98 0
	.cv_loc	86 9 285 0
	movq	%rdx, 1400(%rsp)
	movq	%r8, 1408(%rsp)
.Ltmp107:
	.cv_loc	86 9 505 0
	movq	%rdx, 1416(%rsp)
.Ltmp108:
	.cv_inline_site_id 87 within 85 inlined_at 18 102 0
	.cv_loc	87 9 408 0
	movq	%rdx, 1424(%rsp)
.Ltmp109:
	.cv_loc	87 10 961 0
	shlq	$4, %r8
	movq	%rdx, %rax
	addq	%r8, %rax
.Ltmp110:
	.cv_loc	85 18 102 0
	movq	%rax, 1088(%rsp)
.Ltmp111:
	.cv_loc	85 18 104 0
	movq	%rdx, 408(%rsp)
	movq	1088(%rsp), %rax
	movq	%rax, 416(%rsp)
.Ltmp112:
	.cv_loc	43 15 160 0
	movq	408(%rsp), %rax
	movq	%rax, 400(%rsp)
	movq	%rax, 1432(%rsp)
.Ltmp113:
	.cv_loc	43 15 161 0
	movq	416(%rsp), %rcx
	movq	%rcx, 1440(%rsp)
.Ltmp114:
	.cv_inline_site_id 88 within 43 inlined_at 15 179 0
	.cv_loc	88 9 1692 0
	cmpq	%rcx, %rax
.Ltmp115:
	.cv_loc	43 15 179 0
	je	.LBB26_2
.Ltmp116:
	.cv_loc	45 9 660 0
	movq	400(%rsp), %rax
.Ltmp117:
	movq	%rax, %rcx
	addq	$16, %rcx
.Ltmp118:
	.cv_loc	43 15 184 0
	movq	%rcx, 408(%rsp)
.Ltmp119:
	.cv_loc	43 15 189 0
	movq	%rax, 424(%rsp)
.Ltmp120:
	.cv_loc	43 15 191 0
	jmp	.LBB26_3
.Ltmp121:
.LBB26_2:
	.cv_loc	43 15 180 0
	movq	$0, 424(%rsp)
.Ltmp122:
.LBB26_3:
	.cv_loc	42 14 140 0
	movq	424(%rsp), %rdx
	movl	$1, %eax
	xorl	%ecx, %ecx
	cmpq	$0, %rdx
	cmoveq	%rcx, %rax
	testq	$1, %rax
	je	.LBB26_5
	.cv_loc	42 14 141 0
	movq	424(%rsp), %rax
	movq	%rax, 336(%rsp)
	movq	%rax, 1448(%rsp)
.Ltmp123:
	.cv_inline_site_id 89 within 42 inlined_at 14 150 0
	.cv_loc	89 15 33 0
	movq	416(%rsp), %rcx
	movq	%rcx, 1456(%rsp)
.Ltmp124:
	.cv_loc	89 15 57 0
	movq	408(%rsp), %rdx
	callq	_RNvMs1_NtNtCsaGRekH07FSF_4core3ptr8non_nullINtB5_7NonNullReE20offset_from_unsignedCs2J74ZzqJeQl_5types
	movq	%rax, %rcx
	movq	392(%rsp), %rax
	movq	%rcx, 464(%rsp)
.Ltmp125:
	.cv_inline_site_id 90 within 89 inlined_at 7 1046 0
	.cv_loc	90 7 2882 0
	mulq	464(%rsp)
	movq	%rax, %rcx
	movq	%rcx, 344(%rsp)
	seto	%al
	movb	%al, %dl
	andb	$1, %dl
	movb	%dl, 1471(%rsp)
	.cv_loc	90 7 2883 0
	movq	%rcx, 1472(%rsp)
.Ltmp126:
	.cv_file	19 "/rustc/1be6b13be73dc12e98e51b403add4c41a0b77759\\library\\core\\src\\intrinsics\\mod.rs" "AB53B92A5B3950A20C9D88E40ED2D611AC63491612B3CDE683F69CFCCA528158" 3
	.cv_inline_site_id 91 within 89 inlined_at 7 1047 0
	.cv_loc	91 19 457 0
	testb	$1, %al
	jne	.LBB26_8
	jmp	.LBB26_7
.Ltmp127:
.LBB26_5:
	.cv_file	20 "/rustc/1be6b13be73dc12e98e51b403add4c41a0b77759\\library\\alloc\\src\\macros.rs" "F493A323EF1AB77759D9A04877219E4932D7689A29BCCAA8D4DA7C57A8DBFAC1" 3
	.cv_inline_site_id 92 within 42 inlined_at 20 44 0
	.cv_loc	92 5 464 0
	movq	376(%rsp), %rax
.Ltmp128:
	movq	$0, (%rax)
	movl	$1, %ecx
	movq	%rcx, 8(%rax)
	movq	$0, 16(%rax)
.Ltmp129:
.LBB26_6:
	.cv_loc	42 14 186 0
	movq	384(%rsp), %rax
	.seh_startepilogue
	addq	$2312, %rsp
	.seh_endepilogue
	retq
.LBB26_7:
	.cv_loc	89 7 1047 0
	movq	344(%rsp), %rax
.Ltmp130:
	movq	%rax, 456(%rsp)
	movq	$1, 448(%rsp)
	jmp	.LBB26_9
.LBB26_8:
	movq	$0, 448(%rsp)
	movq	%rax, 456(%rsp)
.Ltmp131:
.LBB26_9:
	.cv_inline_site_id 93 within 42 inlined_at 14 151 0
	.cv_loc	93 1 1545 0
	testq	$1, 448(%rsp)
	je	.LBB26_11
	.cv_loc	93 1 1546 0
	movq	368(%rsp), %rcx
	movq	360(%rsp), %r8
	movq	456(%rsp), %rdx
	movq	%rdx, 1480(%rsp)
.Ltmp132:
	.cv_inline_site_id 94 within 93 inlined_at 1 1546 0
	.cv_inline_site_id 95 within 94 inlined_at 14 152 0
	.cv_inline_site_id 96 within 95 inlined_at 12 1040 0
	.cv_inline_site_id 97 within 96 inlined_at 18 98 0
	.cv_loc	97 9 505 0
	movq	%rcx, 1488(%rsp)
.Ltmp133:
	.cv_inline_site_id 98 within 96 inlined_at 18 102 0
	.cv_loc	98 9 408 0
	movq	%rcx, 1496(%rsp)
.Ltmp134:
	.cv_loc	98 10 961 0
	shlq	$4, %r8
	movq	%rcx, %rax
	addq	%r8, %rax
.Ltmp135:
	.cv_loc	96 18 102 0
	movq	%rax, 1112(%rsp)
.Ltmp136:
	.cv_loc	96 18 104 0
	movq	1112(%rsp), %rax
	movq	%rcx, 1504(%rsp)
	movq	%rax, 1512(%rsp)
.Ltmp137:
	.cv_file	21 "/rustc/1be6b13be73dc12e98e51b403add4c41a0b77759\\library\\core\\src\\iter\\traits\\iterator.rs" "5ECFF1BAD033289C50B6E4BA5C30F0EE62C7D9AFCDDFEE8862EEF02CF854F962" 3
	.cv_inline_site_id 99 within 95 inlined_at 21 778 0
	.cv_loc	99 17 69 0
	movq	%rcx, 1096(%rsp)
	movq	%rax, 1104(%rsp)
.Ltmp138:
	.cv_loc	95 17 121 0
	leaq	1096(%rsp), %r8
	addq	$16, %r8
	movq	%r8, 1520(%rsp)
	leaq	1096(%rsp), %rcx
	callq	_RINvYINtNtNtCsaGRekH07FSF_4core5slice4iter4IterReENtNtNtNtBa_4iter6traits8iterator8Iterator8try_foldjNCINvNtNtBS_8adapters3map12map_try_foldRBJ_jjINtNtBa_6option6OptionjENCNCINvNtCsdKWIjqbzJ9K_5alloc3str17join_generic_copyehBJ_E00NvMs9_NtBa_3numj11checked_addE0B2k_ECs2J74ZzqJeQl_5types
	movq	%rax, 432(%rsp)
	movq	%rdx, 440(%rsp)
.Ltmp139:
	.cv_loc	93 1 1546 0
	jmp	.LBB26_12
.Ltmp140:
.LBB26_11:
	.cv_loc	93 1 1547 0
	movq	$0, 432(%rsp)
	movq	%rax, 440(%rsp)
.Ltmp141:
.LBB26_12:
	.cv_loc	46 1 969 0
	testq	$1, 432(%rsp)
	je	.LBB26_14
	.cv_loc	46 1 970 0
	movq	440(%rsp), %rcx
	movq	%rcx, 264(%rsp)
	movq	%rcx, 1528(%rsp)
	movl	$1, %r8d
	movq	%r8, 304(%rsp)
.Ltmp142:
	.cv_inline_site_id 100 within 42 inlined_at 14 157 0
	.cv_inline_site_id 101 within 100 inlined_at 5 523 0
	.cv_inline_site_id 102 within 101 inlined_at 5 913 0
	.cv_loc	102 6 187 0
	movq	%r8, %rdx
	callq	_RNvMs2_NtCsdKWIjqbzJ9K_5alloc7raw_vecNtB5_11RawVecInner16with_capacity_inCs2J74ZzqJeQl_5types
	movq	336(%rsp), %rcx
.Ltmp143:
	.cv_loc	101 5 913 0
	movq	%rax, 472(%rsp)
	movq	%rdx, 480(%rsp)
	movq	$0, 488(%rsp)
	leaq	472(%rsp), %rax
	movq	%rax, 248(%rsp)
.Ltmp144:
	.cv_loc	42 14 160 0
	movq	%rax, 1536(%rsp)
	callq	_RNvXs0_NtCsaGRekH07FSF_4core6borrowReINtB5_6BorroweE6borrowCs2J74ZzqJeQl_5types
	movq	%rax, %rcx
	callq	_RNvXs_NtCsaGRekH07FSF_4core3streINtNtB6_7convert5AsRefShE6as_refCs2J74ZzqJeQl_5types
	movq	248(%rsp), %rcx
	movq	%rax, 256(%rsp)
	movq	%rdx, %r8
	movq	256(%rsp), %rdx
	movq	%rdx, 1544(%rsp)
	movq	%r8, 1552(%rsp)
.Ltmp145:
	.cv_inline_site_id 103 within 42 inlined_at 14 160 0
	.cv_inline_site_id 104 within 103 inlined_at 5 3355 0
	.cv_inline_site_id 105 within 104 inlined_at 12 1040 0
	.cv_loc	105 18 97 0
	movq	%r8, 1560(%rsp)
.Ltmp146:
	.cv_inline_site_id 106 within 105 inlined_at 18 98 0
	.cv_loc	106 9 505 0
	movq	%rdx, 1568(%rsp)
.Ltmp147:
	.cv_inline_site_id 107 within 105 inlined_at 18 102 0
	.cv_loc	107 9 408 0
	movq	%rdx, 1576(%rsp)
.Ltmp148:
	.cv_loc	107 10 961 0
	movq	%rdx, %rax
	addq	%r8, %rax
.Ltmp149:
	.cv_loc	105 18 102 0
	movq	%rax, 1120(%rsp)
.Ltmp150:
	.cv_loc	105 18 104 0
	movq	1120(%rsp), %r8
.Ltmp151:
	.cv_loc	103 5 3355 0
	callq	_RNvXs2_NtNtCsdKWIjqbzJ9K_5alloc3vec11spec_extendINtB7_3VechEINtB5_10SpecExtendRhINtNtNtCsaGRekH07FSF_4core5slice4iter4IterhEE11spec_extendCs2J74ZzqJeQl_5types
	movq	304(%rsp), %r8
.Ltmp152:
	.cv_inline_site_id 108 within 42 inlined_at 14 163 0
	.cv_loc	108 5 2856 0
	movq	488(%rsp), %rax
	movq	%rax, 272(%rsp)
	movq	%rax, 1584(%rsp)
.Ltmp153:
	.cv_inline_site_id 109 within 50 inlined_at 5 3060 0
	.cv_inline_site_id 110 within 109 inlined_at 5 1779 0
	.cv_inline_site_id 111 within 110 inlined_at 6 282 0
	.cv_inline_site_id 112 within 111 inlined_at 6 499 0
	.cv_loc	112 6 504 0
	movq	480(%rsp), %rcx
.Ltmp154:
	.cv_loc	112 9 408 0
	movq	%rcx, 1592(%rsp)
.Ltmp155:
	.cv_loc	50 5 3060 0
	movq	488(%rsp), %rax
	movq	%rax, 1600(%rsp)
.Ltmp156:
	.cv_loc	109 10 961 0
	addq	%rax, %rcx
	movq	%rcx, 288(%rsp)
.Ltmp157:
	.cv_loc	50 5 3060 0
	movq	%rcx, 1608(%rsp)
.Ltmp158:
	.cv_loc	52 6 509 0
	movq	472(%rsp), %rax
	movq	%rax, 1616(%rsp)
.Ltmp159:
	.cv_inline_site_id 113 within 52 inlined_at 6 509 0
	.cv_loc	113 8 61 0
	movq	%rax, 1128(%rsp)
.Ltmp160:
	.cv_loc	50 5 3061 0
	movq	488(%rsp), %rax
	movq	1128(%rsp), %r9
	subq	%rax, %r9
	movq	%r9, 280(%rsp)
	movq	%r9, 1624(%rsp)
.Ltmp161:
	.cv_inline_site_id 114 within 50 inlined_at 5 3059 0
	.cv_loc	114 13 78 0
	leaq	anon.d3fe902d2fc543e5a5ebd510b0621c19.8(%rip), %rdx
	movq	%rsp, %rax
	movq	%rdx, 32(%rax)
	movq	%r8, %rdx
	callq	_RNvNvNtNtCsaGRekH07FSF_4core5slice3raw18from_raw_parts_mut18precondition_checkCs2J74ZzqJeQl_5types
	movq	264(%rsp), %rdx
	movq	272(%rsp), %rcx
	movq	280(%rsp), %r8
	movq	288(%rsp), %rax
.Ltmp162:
	.cv_file	22 "/rustc/1be6b13be73dc12e98e51b403add4c41a0b77759\\library\\core\\src\\ptr\\metadata.rs" "526898E837EDF73D2FB5431B7E2E76182AB5510124F7A87CAA2B612410B79FC9" 3
	.cv_file	23 "/rustc/1be6b13be73dc12e98e51b403add4c41a0b77759\\library\\core\\src\\slice\\raw.rs" "0914968067F7E2BC798680C1EDD72BCB032A9FD44EBB2B6FBC082A3A2B16941F" 3
	.cv_inline_site_id 115 within 114 inlined_at 23 194 0
	.cv_inline_site_id 116 within 115 inlined_at 11 1219 0
	.cv_loc	116 22 133 0
	movq	%rax, 1632(%rsp)
	movq	%r8, 1640(%rsp)
.Ltmp163:
	.cv_loc	42 14 164 0
	subq	%rcx, %rdx
	movq	%rdx, 296(%rsp)
	movq	%rdx, 1648(%rsp)
.Ltmp164:
	.cv_loc	50 12 690 0
	movq	%rax, 1656(%rsp)
	movq	%r8, 1664(%rsp)
.Ltmp165:
	.cv_loc	54 13 78 0
	leaq	anon.d3fe902d2fc543e5a5ebd510b0621c19.10(%rip), %r9
	xorl	%eax, %eax
	movl	%eax, %ecx
	callq	_RNvNvXs2_NtNtCsaGRekH07FSF_4core5slice5indexINtNtNtBb_3ops5range5RangejEINtB7_10SliceIndexSpE17get_unchecked_mut18precondition_checkCs2J74ZzqJeQl_5types
	movq	288(%rsp), %rdx
	movq	296(%rsp), %rax
	movq	304(%rsp), %r8
	movq	352(%rsp), %rcx
	movq	392(%rsp), %r9
.Ltmp166:
	.cv_loc	50 12 690 0
	movq	%rdx, 1040(%rsp)
	movq	%rax, 1048(%rsp)
.Ltmp167:
	.cv_inline_site_id 117 within 42 inlined_at 14 168 0
	.cv_loc	117 12 726 0
	movq	%rcx, 1672(%rsp)
.Ltmp168:
	.cv_file	24 "/rustc/1be6b13be73dc12e98e51b403add4c41a0b77759\\library\\core\\src\\ptr\\const_ptr.rs" "F4B12E497D3BBBB9A99DE9840D0A4700D96A028289508217BFF19805F0F38E72" 3
	.cv_loc	117 24 49 0
	movq	%rcx, 1680(%rsp)
.Ltmp169:
	.cv_loc	117 13 78 0
	leaq	anon.d3fe902d2fc543e5a5ebd510b0621c19.11(%rip), %rdx
	movq	%rsp, %rax
	movq	%rdx, 32(%rax)
	movq	%r8, %rdx
	callq	_RNvNvNtNtCsaGRekH07FSF_4core5slice3raw14from_raw_parts18precondition_checkCs2J74ZzqJeQl_5types
	movq	352(%rsp), %rcx
	movq	392(%rsp), %rax
.Ltmp170:
	.cv_inline_site_id 118 within 117 inlined_at 23 139 0
	.cv_inline_site_id 119 within 118 inlined_at 11 1173 0
	.cv_loc	119 22 120 0
	movq	%rcx, 1688(%rsp)
	movq	%rax, 1696(%rsp)
.Ltmp171:
	.cv_inline_site_id 120 within 42 inlined_at 14 169 0
	.cv_inline_site_id 121 within 120 inlined_at 21 778 0
	.cv_loc	121 17 69 0
	movq	408(%rsp), %rdx
	movq	%rdx, 312(%rsp)
	movq	416(%rsp), %rcx
	movq	%rcx, 320(%rsp)
	movq	%rdx, 1704(%rsp)
	movq	%rcx, 1712(%rsp)
.Ltmp172:
	.cv_loc	42 14 86 0
	movq	%rax, %rcx
	movq	%rcx, 328(%rsp)
	subq	$4, %rax
	ja	.LBB26_15
.Ltmp173:
	movq	328(%rsp), %rcx
	leaq	.LJTI26_0(%rip), %rax
	movslq	(%rax,%rcx,4), %rcx
	addq	%rcx, %rax
.Ltmp174:
	jmpq	*%rax
.Ltmp175:
.LBB26_14:
	.cv_loc	46 1 971 0
	leaq	anon.d3fe902d2fc543e5a5ebd510b0621c19.4(%rip), %rcx
	movl	$53, %edx
	leaq	anon.d3fe902d2fc543e5a5ebd510b0621c19.7(%rip), %r8
	callq	_RNvNtCsaGRekH07FSF_4core6option13expect_failed
.Ltmp176:
.LBB26_15:
	.cv_loc	42 14 100 0
	movq	320(%rsp), %rax
	movq	312(%rsp), %rcx
.Ltmp177:
	movq	%rcx, 976(%rsp)
	movq	%rax, 984(%rsp)
.Ltmp178:
	.cv_loc	42 14 100 0
	jmp	.LBB26_67
.Ltmp179:
.LBB26_16:
	.cv_loc	42 14 91 0
	movq	320(%rsp), %rax
	movq	312(%rsp), %rcx
	movq	%rcx, 496(%rsp)
	movq	%rax, 504(%rsp)
.Ltmp180:
	.cv_loc	42 14 91 0
	jmp	.LBB26_21
.Ltmp181:
.LBB26_17:
	.cv_loc	42 14 91 0
	movq	320(%rsp), %rax
	movq	312(%rsp), %rcx
	movq	%rcx, 592(%rsp)
	movq	%rax, 600(%rsp)
.Ltmp182:
	.cv_loc	42 14 91 0
	jmp	.LBB26_31
.Ltmp183:
.LBB26_18:
	.cv_loc	42 14 91 0
	movq	320(%rsp), %rax
	movq	312(%rsp), %rcx
	movq	%rcx, 688(%rsp)
	movq	%rax, 696(%rsp)
.Ltmp184:
	.cv_loc	42 14 91 0
	jmp	.LBB26_40
.Ltmp185:
.LBB26_19:
	.cv_loc	42 14 91 0
	movq	320(%rsp), %rax
	movq	312(%rsp), %rcx
	movq	%rcx, 784(%rsp)
	movq	%rax, 792(%rsp)
.Ltmp186:
	.cv_loc	42 14 91 0
	jmp	.LBB26_49
.Ltmp187:
.LBB26_20:
	.cv_loc	42 14 91 0
	movq	320(%rsp), %rax
	movq	312(%rsp), %rcx
	movq	%rcx, 880(%rsp)
	movq	%rax, 888(%rsp)
.Ltmp188:
	.cv_loc	42 14 91 0
	jmp	.LBB26_58
.Ltmp189:
.LBB26_21:
	.cv_loc	57 15 160 0
	movq	496(%rsp), %rax
	movq	%rax, 240(%rsp)
	movq	%rax, 1720(%rsp)
.Ltmp190:
	.cv_loc	57 15 161 0
	movq	504(%rsp), %rcx
	movq	%rcx, 1728(%rsp)
.Ltmp191:
	.cv_inline_site_id 122 within 57 inlined_at 15 179 0
	.cv_loc	122 9 1692 0
	cmpq	%rcx, %rax
.Ltmp192:
	.cv_loc	57 15 179 0
	je	.LBB26_23
.Ltmp193:
	.cv_loc	59 9 660 0
	movq	240(%rsp), %rax
.Ltmp194:
	movq	%rax, %rcx
	addq	$16, %rcx
.Ltmp195:
	.cv_loc	57 15 184 0
	movq	%rcx, 496(%rsp)
.Ltmp196:
	.cv_loc	57 15 189 0
	movq	%rax, 1136(%rsp)
.Ltmp197:
	.cv_loc	57 15 191 0
	jmp	.LBB26_24
.Ltmp198:
.LBB26_23:
	.cv_loc	57 15 180 0
	movq	$0, 1136(%rsp)
.Ltmp199:
.LBB26_24:
	.cv_loc	56 17 107 0
	leaq	496(%rsp), %rax
	addq	$16, %rax
	movq	%rax, 232(%rsp)
	movq	%rax, 1736(%rsp)
.Ltmp200:
	.cv_loc	57 1 1164 0
	movq	1136(%rsp), %rdx
	movl	$1, %eax
	xorl	%ecx, %ecx
	cmpq	$0, %rdx
	cmoveq	%rcx, %rax
	testq	$1, %rax
	je	.LBB26_26
.Ltmp201:
	.cv_loc	57 1 1165 0
	movq	232(%rsp), %rcx
	movq	1136(%rsp), %rdx
	movq	%rdx, 1744(%rsp)
.Ltmp202:
	.cv_loc	57 1 1165 0
	movq	%rdx, 1752(%rsp)
.Ltmp203:
	.cv_file	25 "/rustc/1be6b13be73dc12e98e51b403add4c41a0b77759\\library\\core\\src\\ops\\function.rs" "43310667B7443FF2742CC8EEB93F40BCCC544B235F0AD67A61725C3AAC41896D" 3
	.cv_inline_site_id 123 within 57 inlined_at 1 1165 0
	.cv_loc	123 25 310 0
	callq	_RNCINvNtCsdKWIjqbzJ9K_5alloc3str17join_generic_copyehReEs_0Cs2J74ZzqJeQl_5types
.Ltmp204:
	.cv_loc	57 1 1165 0
	movq	%rax, 512(%rsp)
	movq	%rdx, 520(%rsp)
.Ltmp205:
	.cv_loc	57 1 1165 0
	jmp	.LBB26_27
.Ltmp206:
.LBB26_26:
	.cv_loc	57 1 1166 0
	movq	$0, 512(%rsp)
	movq	%rax, 520(%rsp)
.Ltmp207:
.LBB26_27:
	.cv_loc	42 14 91 0
	movq	512(%rsp), %rdx
	movl	$1, %eax
	xorl	%ecx, %ecx
	cmpq	$0, %rdx
	cmoveq	%rcx, %rax
	testq	$1, %rax
	je	.LBB26_29
	movq	392(%rsp), %r9
	movq	512(%rsp), %rcx
	movq	%rcx, 216(%rsp)
	movq	520(%rsp), %rax
	movq	%rax, 224(%rsp)
	movq	%rcx, 1760(%rsp)
	movq	%rax, 1768(%rsp)
.Ltmp208:
	.cv_loc	42 14 115 0
	movq	1040(%rsp), %rdx
	movq	1048(%rsp), %r8
	leaq	528(%rsp), %rcx
	leaq	anon.d3fe902d2fc543e5a5ebd510b0621c19.12(%rip), %rax
	movq	%rax, 32(%rsp)
	callq	_RNvMNtCsaGRekH07FSF_4core5sliceSINtNtNtB4_3mem12maybe_uninit11MaybeUninithE12split_at_mutCs2J74ZzqJeQl_5types
	movq	352(%rsp), %r8
	movq	392(%rsp), %r9
	movq	528(%rsp), %rcx
	movq	536(%rsp), %rdx
	movq	%rcx, 1776(%rsp)
	movq	%rdx, 1784(%rsp)
	movq	544(%rsp), %r10
	movq	552(%rsp), %rax
	movq	%r10, 1040(%rsp)
	movq	%rax, 1048(%rsp)
.Ltmp209:
	.cv_inline_site_id 124 within 42 inlined_at 14 116 0
	.cv_loc	124 12 3895 0
	leaq	anon.d3fe902d2fc543e5a5ebd510b0621c19.12(%rip), %rax
	movq	%rax, 32(%rsp)
	callq	_RINvNtCsaGRekH07FSF_4core5slice20copy_from_slice_implINtNtNtB4_3mem12maybe_uninit11MaybeUninithEECs2J74ZzqJeQl_5types
	movq	224(%rsp), %r9
.Ltmp210:
	.cv_loc	42 14 114 0
	movq	%r9, 1792(%rsp)
.Ltmp211:
	.cv_loc	42 14 115 0
	movq	1040(%rsp), %rdx
	movq	1048(%rsp), %r8
	leaq	560(%rsp), %rcx
	leaq	anon.d3fe902d2fc543e5a5ebd510b0621c19.12(%rip), %rax
	movq	%rax, 32(%rsp)
	callq	_RNvMNtCsaGRekH07FSF_4core5sliceSINtNtNtB4_3mem12maybe_uninit11MaybeUninithE12split_at_mutCs2J74ZzqJeQl_5types
	movq	216(%rsp), %r8
	movq	224(%rsp), %r9
	movq	560(%rsp), %rcx
	movq	568(%rsp), %rdx
	movq	%rcx, 1800(%rsp)
	movq	%rdx, 1808(%rsp)
	movq	576(%rsp), %r10
	movq	584(%rsp), %rax
	movq	%r10, 1040(%rsp)
	movq	%rax, 1048(%rsp)
.Ltmp212:
	.cv_inline_site_id 125 within 42 inlined_at 14 116 0
	.cv_loc	125 12 3895 0
	leaq	anon.d3fe902d2fc543e5a5ebd510b0621c19.12(%rip), %rax
	movq	%rax, 32(%rsp)
	callq	_RINvNtCsaGRekH07FSF_4core5slice20copy_from_slice_implINtNtNtB4_3mem12maybe_uninit11MaybeUninithEECs2J74ZzqJeQl_5types
.Ltmp213:
	.cv_loc	42 14 91 0
	jmp	.LBB26_21
.Ltmp214:
.LBB26_29:
	.cv_loc	42 14 95 0
	jmp	.LBB26_30
.Ltmp215:
.LBB26_30:
	.cv_loc	42 14 182 0
	movq	264(%rsp), %rcx
.Ltmp216:
	subq	1048(%rsp), %rcx
	movq	%rcx, 208(%rsp)
	movq	%rcx, 2240(%rsp)
.Ltmp217:
	.cv_loc	83 6 509 0
	movq	472(%rsp), %rax
	movq	%rax, 2248(%rsp)
.Ltmp218:
	.cv_inline_site_id 126 within 83 inlined_at 6 509 0
	.cv_loc	126 8 61 0
	movq	%rax, 1184(%rsp)
.Ltmp219:
	.cv_loc	80 5 1941 0
	movq	1184(%rsp), %rdx
	leaq	anon.d3fe902d2fc543e5a5ebd510b0621c19.1(%rip), %r8
	callq	_RNvNvMs_NtCsdKWIjqbzJ9K_5alloc3vecINtB6_3VecppE7set_len18precondition_checkCs2J74ZzqJeQl_5types
	movq	208(%rsp), %rcx
	movq	376(%rsp), %rax
	.cv_loc	80 5 1947 0
	movq	%rcx, 488(%rsp)
.Ltmp220:
	.cv_loc	42 14 185 0
	movq	472(%rsp), %rcx
	movq	%rcx, (%rax)
	movq	480(%rsp), %rcx
	movq	%rcx, 8(%rax)
	movq	488(%rsp), %rcx
	movq	%rcx, 16(%rax)
.Ltmp221:
	.cv_loc	42 14 186 0
	jmp	.LBB26_6
.Ltmp222:
.LBB26_31:
	.cv_loc	61 15 160 0
	movq	592(%rsp), %rax
	movq	%rax, 200(%rsp)
	movq	%rax, 1816(%rsp)
.Ltmp223:
	.cv_loc	61 15 161 0
	movq	600(%rsp), %rcx
	movq	%rcx, 1824(%rsp)
.Ltmp224:
	.cv_inline_site_id 127 within 61 inlined_at 15 179 0
	.cv_loc	127 9 1692 0
	cmpq	%rcx, %rax
.Ltmp225:
	.cv_loc	61 15 179 0
	je	.LBB26_33
.Ltmp226:
	.cv_loc	63 9 660 0
	movq	200(%rsp), %rax
.Ltmp227:
	movq	%rax, %rcx
	addq	$16, %rcx
.Ltmp228:
	.cv_loc	61 15 184 0
	movq	%rcx, 592(%rsp)
.Ltmp229:
	.cv_loc	61 15 189 0
	movq	%rax, 1144(%rsp)
.Ltmp230:
	.cv_loc	61 15 191 0
	jmp	.LBB26_34
.Ltmp231:
.LBB26_33:
	.cv_loc	61 15 180 0
	movq	$0, 1144(%rsp)
.Ltmp232:
.LBB26_34:
	.cv_loc	60 17 107 0
	leaq	592(%rsp), %rax
	addq	$16, %rax
	movq	%rax, 192(%rsp)
	movq	%rax, 1832(%rsp)
.Ltmp233:
	.cv_loc	61 1 1164 0
	movq	1144(%rsp), %rdx
	movl	$1, %eax
	xorl	%ecx, %ecx
	cmpq	$0, %rdx
	cmoveq	%rcx, %rax
	testq	$1, %rax
	je	.LBB26_36
.Ltmp234:
	.cv_loc	61 1 1165 0
	movq	192(%rsp), %rcx
	movq	1144(%rsp), %rdx
	movq	%rdx, 1840(%rsp)
.Ltmp235:
	.cv_loc	61 1 1165 0
	movq	%rdx, 1848(%rsp)
.Ltmp236:
	.cv_inline_site_id 128 within 61 inlined_at 1 1165 0
	.cv_loc	128 25 310 0
	callq	_RNCINvNtCsdKWIjqbzJ9K_5alloc3str17join_generic_copyehReEs_0Cs2J74ZzqJeQl_5types
.Ltmp237:
	.cv_loc	61 1 1165 0
	movq	%rax, 608(%rsp)
	movq	%rdx, 616(%rsp)
.Ltmp238:
	.cv_loc	61 1 1165 0
	jmp	.LBB26_37
.Ltmp239:
.LBB26_36:
	.cv_loc	61 1 1166 0
	movq	$0, 608(%rsp)
	movq	%rax, 616(%rsp)
.Ltmp240:
.LBB26_37:
	.cv_loc	42 14 91 0
	movq	608(%rsp), %rdx
	movl	$1, %eax
	xorl	%ecx, %ecx
	cmpq	$0, %rdx
	cmoveq	%rcx, %rax
	testq	$1, %rax
	je	.LBB26_39
	movq	392(%rsp), %r9
	movq	608(%rsp), %rcx
	movq	%rcx, 176(%rsp)
	movq	616(%rsp), %rax
	movq	%rax, 184(%rsp)
	movq	%rcx, 1856(%rsp)
	movq	%rax, 1864(%rsp)
.Ltmp241:
	.cv_loc	42 14 115 0
	movq	1040(%rsp), %rdx
	movq	1048(%rsp), %r8
	leaq	624(%rsp), %rcx
	leaq	anon.d3fe902d2fc543e5a5ebd510b0621c19.12(%rip), %rax
	movq	%rax, 32(%rsp)
	callq	_RNvMNtCsaGRekH07FSF_4core5sliceSINtNtNtB4_3mem12maybe_uninit11MaybeUninithE12split_at_mutCs2J74ZzqJeQl_5types
	movq	352(%rsp), %r8
	movq	392(%rsp), %r9
	movq	624(%rsp), %rcx
	movq	632(%rsp), %rdx
	movq	%rcx, 1872(%rsp)
	movq	%rdx, 1880(%rsp)
	movq	640(%rsp), %r10
	movq	648(%rsp), %rax
	movq	%r10, 1040(%rsp)
	movq	%rax, 1048(%rsp)
.Ltmp242:
	.cv_inline_site_id 129 within 42 inlined_at 14 116 0
	.cv_loc	129 12 3895 0
	leaq	anon.d3fe902d2fc543e5a5ebd510b0621c19.12(%rip), %rax
	movq	%rax, 32(%rsp)
	callq	_RINvNtCsaGRekH07FSF_4core5slice20copy_from_slice_implINtNtNtB4_3mem12maybe_uninit11MaybeUninithEECs2J74ZzqJeQl_5types
	movq	184(%rsp), %r9
.Ltmp243:
	.cv_loc	42 14 114 0
	movq	%r9, 1888(%rsp)
.Ltmp244:
	.cv_loc	42 14 115 0
	movq	1040(%rsp), %rdx
	movq	1048(%rsp), %r8
	leaq	656(%rsp), %rcx
	leaq	anon.d3fe902d2fc543e5a5ebd510b0621c19.12(%rip), %rax
	movq	%rax, 32(%rsp)
	callq	_RNvMNtCsaGRekH07FSF_4core5sliceSINtNtNtB4_3mem12maybe_uninit11MaybeUninithE12split_at_mutCs2J74ZzqJeQl_5types
	movq	176(%rsp), %r8
	movq	184(%rsp), %r9
	movq	656(%rsp), %rcx
	movq	664(%rsp), %rdx
	movq	%rcx, 1896(%rsp)
	movq	%rdx, 1904(%rsp)
	movq	672(%rsp), %r10
	movq	680(%rsp), %rax
	movq	%r10, 1040(%rsp)
	movq	%rax, 1048(%rsp)
.Ltmp245:
	.cv_inline_site_id 130 within 42 inlined_at 14 116 0
	.cv_loc	130 12 3895 0
	leaq	anon.d3fe902d2fc543e5a5ebd510b0621c19.12(%rip), %rax
	movq	%rax, 32(%rsp)
	callq	_RINvNtCsaGRekH07FSF_4core5slice20copy_from_slice_implINtNtNtB4_3mem12maybe_uninit11MaybeUninithEECs2J74ZzqJeQl_5types
.Ltmp246:
	.cv_loc	42 14 91 0
	jmp	.LBB26_31
.Ltmp247:
.LBB26_39:
	.cv_loc	42 14 95 0
	jmp	.LBB26_30
.LBB26_40:
.Ltmp248:
	.cv_loc	65 15 160 0
	movq	688(%rsp), %rax
	movq	%rax, 168(%rsp)
	movq	%rax, 1912(%rsp)
.Ltmp249:
	.cv_loc	65 15 161 0
	movq	696(%rsp), %rcx
	movq	%rcx, 1920(%rsp)
.Ltmp250:
	.cv_inline_site_id 131 within 65 inlined_at 15 179 0
	.cv_loc	131 9 1692 0
	cmpq	%rcx, %rax
.Ltmp251:
	.cv_loc	65 15 179 0
	je	.LBB26_42
.Ltmp252:
	.cv_loc	67 9 660 0
	movq	168(%rsp), %rax
.Ltmp253:
	movq	%rax, %rcx
	addq	$16, %rcx
.Ltmp254:
	.cv_loc	65 15 184 0
	movq	%rcx, 688(%rsp)
.Ltmp255:
	.cv_loc	65 15 189 0
	movq	%rax, 1152(%rsp)
.Ltmp256:
	.cv_loc	65 15 191 0
	jmp	.LBB26_43
.Ltmp257:
.LBB26_42:
	.cv_loc	65 15 180 0
	movq	$0, 1152(%rsp)
.Ltmp258:
.LBB26_43:
	.cv_loc	64 17 107 0
	leaq	688(%rsp), %rax
	addq	$16, %rax
	movq	%rax, 160(%rsp)
	movq	%rax, 1928(%rsp)
.Ltmp259:
	.cv_loc	65 1 1164 0
	movq	1152(%rsp), %rdx
	movl	$1, %eax
	xorl	%ecx, %ecx
	cmpq	$0, %rdx
	cmoveq	%rcx, %rax
	testq	$1, %rax
	je	.LBB26_45
.Ltmp260:
	.cv_loc	65 1 1165 0
	movq	160(%rsp), %rcx
	movq	1152(%rsp), %rdx
	movq	%rdx, 1936(%rsp)
.Ltmp261:
	.cv_loc	65 1 1165 0
	movq	%rdx, 1944(%rsp)
.Ltmp262:
	.cv_inline_site_id 132 within 65 inlined_at 1 1165 0
	.cv_loc	132 25 310 0
	callq	_RNCINvNtCsdKWIjqbzJ9K_5alloc3str17join_generic_copyehReEs_0Cs2J74ZzqJeQl_5types
.Ltmp263:
	.cv_loc	65 1 1165 0
	movq	%rax, 704(%rsp)
	movq	%rdx, 712(%rsp)
.Ltmp264:
	.cv_loc	65 1 1165 0
	jmp	.LBB26_46
.Ltmp265:
.LBB26_45:
	.cv_loc	65 1 1166 0
	movq	$0, 704(%rsp)
	movq	%rax, 712(%rsp)
.Ltmp266:
.LBB26_46:
	.cv_loc	42 14 91 0
	movq	704(%rsp), %rdx
	movl	$1, %eax
	xorl	%ecx, %ecx
	cmpq	$0, %rdx
	cmoveq	%rcx, %rax
	testq	$1, %rax
	je	.LBB26_48
	movq	392(%rsp), %r9
	movq	704(%rsp), %rcx
	movq	%rcx, 144(%rsp)
	movq	712(%rsp), %rax
	movq	%rax, 152(%rsp)
	movq	%rcx, 1952(%rsp)
	movq	%rax, 1960(%rsp)
.Ltmp267:
	.cv_loc	42 14 115 0
	movq	1040(%rsp), %rdx
	movq	1048(%rsp), %r8
	leaq	720(%rsp), %rcx
	leaq	anon.d3fe902d2fc543e5a5ebd510b0621c19.12(%rip), %rax
	movq	%rax, 32(%rsp)
	callq	_RNvMNtCsaGRekH07FSF_4core5sliceSINtNtNtB4_3mem12maybe_uninit11MaybeUninithE12split_at_mutCs2J74ZzqJeQl_5types
	movq	352(%rsp), %r8
	movq	392(%rsp), %r9
	movq	720(%rsp), %rcx
	movq	728(%rsp), %rdx
	movq	%rcx, 1968(%rsp)
	movq	%rdx, 1976(%rsp)
	movq	736(%rsp), %r10
	movq	744(%rsp), %rax
	movq	%r10, 1040(%rsp)
	movq	%rax, 1048(%rsp)
.Ltmp268:
	.cv_inline_site_id 133 within 42 inlined_at 14 116 0
	.cv_loc	133 12 3895 0
	leaq	anon.d3fe902d2fc543e5a5ebd510b0621c19.12(%rip), %rax
	movq	%rax, 32(%rsp)
	callq	_RINvNtCsaGRekH07FSF_4core5slice20copy_from_slice_implINtNtNtB4_3mem12maybe_uninit11MaybeUninithEECs2J74ZzqJeQl_5types
	movq	152(%rsp), %r9
.Ltmp269:
	.cv_loc	42 14 114 0
	movq	%r9, 1984(%rsp)
.Ltmp270:
	.cv_loc	42 14 115 0
	movq	1040(%rsp), %rdx
	movq	1048(%rsp), %r8
	leaq	752(%rsp), %rcx
	leaq	anon.d3fe902d2fc543e5a5ebd510b0621c19.12(%rip), %rax
	movq	%rax, 32(%rsp)
	callq	_RNvMNtCsaGRekH07FSF_4core5sliceSINtNtNtB4_3mem12maybe_uninit11MaybeUninithE12split_at_mutCs2J74ZzqJeQl_5types
	movq	144(%rsp), %r8
	movq	152(%rsp), %r9
	movq	752(%rsp), %rcx
	movq	760(%rsp), %rdx
	movq	%rcx, 1992(%rsp)
	movq	%rdx, 2000(%rsp)
	movq	768(%rsp), %r10
	movq	776(%rsp), %rax
	movq	%r10, 1040(%rsp)
	movq	%rax, 1048(%rsp)
.Ltmp271:
	.cv_inline_site_id 134 within 42 inlined_at 14 116 0
	.cv_loc	134 12 3895 0
	leaq	anon.d3fe902d2fc543e5a5ebd510b0621c19.12(%rip), %rax
	movq	%rax, 32(%rsp)
	callq	_RINvNtCsaGRekH07FSF_4core5slice20copy_from_slice_implINtNtNtB4_3mem12maybe_uninit11MaybeUninithEECs2J74ZzqJeQl_5types
.Ltmp272:
	.cv_loc	42 14 91 0
	jmp	.LBB26_40
.Ltmp273:
.LBB26_48:
	.cv_loc	42 14 95 0
	jmp	.LBB26_30
.LBB26_49:
.Ltmp274:
	.cv_loc	69 15 160 0
	movq	784(%rsp), %rax
	movq	%rax, 136(%rsp)
	movq	%rax, 2008(%rsp)
.Ltmp275:
	.cv_loc	69 15 161 0
	movq	792(%rsp), %rcx
	movq	%rcx, 2016(%rsp)
.Ltmp276:
	.cv_inline_site_id 135 within 69 inlined_at 15 179 0
	.cv_loc	135 9 1692 0
	cmpq	%rcx, %rax
.Ltmp277:
	.cv_loc	69 15 179 0
	je	.LBB26_51
.Ltmp278:
	.cv_loc	71 9 660 0
	movq	136(%rsp), %rax
.Ltmp279:
	movq	%rax, %rcx
	addq	$16, %rcx
.Ltmp280:
	.cv_loc	69 15 184 0
	movq	%rcx, 784(%rsp)
.Ltmp281:
	.cv_loc	69 15 189 0
	movq	%rax, 1160(%rsp)
.Ltmp282:
	.cv_loc	69 15 191 0
	jmp	.LBB26_52
.Ltmp283:
.LBB26_51:
	.cv_loc	69 15 180 0
	movq	$0, 1160(%rsp)
.Ltmp284:
.LBB26_52:
	.cv_loc	68 17 107 0
	leaq	784(%rsp), %rax
	addq	$16, %rax
	movq	%rax, 128(%rsp)
	movq	%rax, 2024(%rsp)
.Ltmp285:
	.cv_loc	69 1 1164 0
	movq	1160(%rsp), %rdx
	movl	$1, %eax
	xorl	%ecx, %ecx
	cmpq	$0, %rdx
	cmoveq	%rcx, %rax
	testq	$1, %rax
	je	.LBB26_54
.Ltmp286:
	.cv_loc	69 1 1165 0
	movq	128(%rsp), %rcx
	movq	1160(%rsp), %rdx
	movq	%rdx, 2032(%rsp)
.Ltmp287:
	.cv_loc	69 1 1165 0
	movq	%rdx, 2040(%rsp)
.Ltmp288:
	.cv_inline_site_id 136 within 69 inlined_at 1 1165 0
	.cv_loc	136 25 310 0
	callq	_RNCINvNtCsdKWIjqbzJ9K_5alloc3str17join_generic_copyehReEs_0Cs2J74ZzqJeQl_5types
.Ltmp289:
	.cv_loc	69 1 1165 0
	movq	%rax, 800(%rsp)
	movq	%rdx, 808(%rsp)
.Ltmp290:
	.cv_loc	69 1 1165 0
	jmp	.LBB26_55
.Ltmp291:
.LBB26_54:
	.cv_loc	69 1 1166 0
	movq	$0, 800(%rsp)
	movq	%rax, 808(%rsp)
.Ltmp292:
.LBB26_55:
	.cv_loc	42 14 91 0
	movq	800(%rsp), %rdx
	movl	$1, %eax
	xorl	%ecx, %ecx
	cmpq	$0, %rdx
	cmoveq	%rcx, %rax
	testq	$1, %rax
	je	.LBB26_57
	movq	392(%rsp), %r9
	movq	800(%rsp), %rcx
	movq	%rcx, 112(%rsp)
	movq	808(%rsp), %rax
	movq	%rax, 120(%rsp)
	movq	%rcx, 2048(%rsp)
	movq	%rax, 2056(%rsp)
.Ltmp293:
	.cv_loc	42 14 115 0
	movq	1040(%rsp), %rdx
	movq	1048(%rsp), %r8
	leaq	816(%rsp), %rcx
	leaq	anon.d3fe902d2fc543e5a5ebd510b0621c19.12(%rip), %rax
	movq	%rax, 32(%rsp)
	callq	_RNvMNtCsaGRekH07FSF_4core5sliceSINtNtNtB4_3mem12maybe_uninit11MaybeUninithE12split_at_mutCs2J74ZzqJeQl_5types
	movq	352(%rsp), %r8
	movq	392(%rsp), %r9
	movq	816(%rsp), %rcx
	movq	824(%rsp), %rdx
	movq	%rcx, 2064(%rsp)
	movq	%rdx, 2072(%rsp)
	movq	832(%rsp), %r10
	movq	840(%rsp), %rax
	movq	%r10, 1040(%rsp)
	movq	%rax, 1048(%rsp)
.Ltmp294:
	.cv_inline_site_id 137 within 42 inlined_at 14 116 0
	.cv_loc	137 12 3895 0
	leaq	anon.d3fe902d2fc543e5a5ebd510b0621c19.12(%rip), %rax
	movq	%rax, 32(%rsp)
	callq	_RINvNtCsaGRekH07FSF_4core5slice20copy_from_slice_implINtNtNtB4_3mem12maybe_uninit11MaybeUninithEECs2J74ZzqJeQl_5types
	movq	120(%rsp), %r9
.Ltmp295:
	.cv_loc	42 14 114 0
	movq	%r9, 2080(%rsp)
.Ltmp296:
	.cv_loc	42 14 115 0
	movq	1040(%rsp), %rdx
	movq	1048(%rsp), %r8
	leaq	848(%rsp), %rcx
	leaq	anon.d3fe902d2fc543e5a5ebd510b0621c19.12(%rip), %rax
	movq	%rax, 32(%rsp)
	callq	_RNvMNtCsaGRekH07FSF_4core5sliceSINtNtNtB4_3mem12maybe_uninit11MaybeUninithE12split_at_mutCs2J74ZzqJeQl_5types
	movq	112(%rsp), %r8
	movq	120(%rsp), %r9
	movq	848(%rsp), %rcx
	movq	856(%rsp), %rdx
	movq	%rcx, 2088(%rsp)
	movq	%rdx, 2096(%rsp)
	movq	864(%rsp), %r10
	movq	872(%rsp), %rax
	movq	%r10, 1040(%rsp)
	movq	%rax, 1048(%rsp)
.Ltmp297:
	.cv_inline_site_id 138 within 42 inlined_at 14 116 0
	.cv_loc	138 12 3895 0
	leaq	anon.d3fe902d2fc543e5a5ebd510b0621c19.12(%rip), %rax
	movq	%rax, 32(%rsp)
	callq	_RINvNtCsaGRekH07FSF_4core5slice20copy_from_slice_implINtNtNtB4_3mem12maybe_uninit11MaybeUninithEECs2J74ZzqJeQl_5types
.Ltmp298:
	.cv_loc	42 14 91 0
	jmp	.LBB26_49
.Ltmp299:
.LBB26_57:
	.cv_loc	42 14 95 0
	jmp	.LBB26_30
.LBB26_58:
.Ltmp300:
	.cv_loc	73 15 160 0
	movq	880(%rsp), %rax
	movq	%rax, 104(%rsp)
	movq	%rax, 2104(%rsp)
.Ltmp301:
	.cv_loc	73 15 161 0
	movq	888(%rsp), %rcx
	movq	%rcx, 2112(%rsp)
.Ltmp302:
	.cv_inline_site_id 139 within 73 inlined_at 15 179 0
	.cv_loc	139 9 1692 0
	cmpq	%rcx, %rax
.Ltmp303:
	.cv_loc	73 15 179 0
	je	.LBB26_60
.Ltmp304:
	.cv_loc	75 9 660 0
	movq	104(%rsp), %rax
.Ltmp305:
	movq	%rax, %rcx
	addq	$16, %rcx
.Ltmp306:
	.cv_loc	73 15 184 0
	movq	%rcx, 880(%rsp)
.Ltmp307:
	.cv_loc	73 15 189 0
	movq	%rax, 1168(%rsp)
.Ltmp308:
	.cv_loc	73 15 191 0
	jmp	.LBB26_61
.Ltmp309:
.LBB26_60:
	.cv_loc	73 15 180 0
	movq	$0, 1168(%rsp)
.Ltmp310:
.LBB26_61:
	.cv_loc	72 17 107 0
	leaq	880(%rsp), %rax
	addq	$16, %rax
	movq	%rax, 96(%rsp)
	movq	%rax, 2120(%rsp)
.Ltmp311:
	.cv_loc	73 1 1164 0
	movq	1168(%rsp), %rdx
	movl	$1, %eax
	xorl	%ecx, %ecx
	cmpq	$0, %rdx
	cmoveq	%rcx, %rax
	testq	$1, %rax
	je	.LBB26_63
.Ltmp312:
	.cv_loc	73 1 1165 0
	movq	96(%rsp), %rcx
	movq	1168(%rsp), %rdx
	movq	%rdx, 2128(%rsp)
.Ltmp313:
	.cv_loc	73 1 1165 0
	movq	%rdx, 2136(%rsp)
.Ltmp314:
	.cv_inline_site_id 140 within 73 inlined_at 1 1165 0
	.cv_loc	140 25 310 0
	callq	_RNCINvNtCsdKWIjqbzJ9K_5alloc3str17join_generic_copyehReEs_0Cs2J74ZzqJeQl_5types
.Ltmp315:
	.cv_loc	73 1 1165 0
	movq	%rax, 896(%rsp)
	movq	%rdx, 904(%rsp)
.Ltmp316:
	.cv_loc	73 1 1165 0
	jmp	.LBB26_64
.Ltmp317:
.LBB26_63:
	.cv_loc	73 1 1166 0
	movq	$0, 896(%rsp)
	movq	%rax, 904(%rsp)
.Ltmp318:
.LBB26_64:
	.cv_loc	42 14 91 0
	movq	896(%rsp), %rdx
	movl	$1, %eax
	xorl	%ecx, %ecx
	cmpq	$0, %rdx
	cmoveq	%rcx, %rax
	testq	$1, %rax
	je	.LBB26_66
	movq	392(%rsp), %r9
	movq	896(%rsp), %rcx
	movq	%rcx, 80(%rsp)
	movq	904(%rsp), %rax
	movq	%rax, 88(%rsp)
	movq	%rcx, 2144(%rsp)
	movq	%rax, 2152(%rsp)
.Ltmp319:
	.cv_loc	42 14 115 0
	movq	1040(%rsp), %rdx
	movq	1048(%rsp), %r8
	leaq	912(%rsp), %rcx
	leaq	anon.d3fe902d2fc543e5a5ebd510b0621c19.12(%rip), %rax
	movq	%rax, 32(%rsp)
	callq	_RNvMNtCsaGRekH07FSF_4core5sliceSINtNtNtB4_3mem12maybe_uninit11MaybeUninithE12split_at_mutCs2J74ZzqJeQl_5types
	movq	352(%rsp), %r8
	movq	392(%rsp), %r9
	movq	912(%rsp), %rcx
	movq	920(%rsp), %rdx
	movq	%rcx, 2160(%rsp)
	movq	%rdx, 2168(%rsp)
	movq	928(%rsp), %r10
	movq	936(%rsp), %rax
	movq	%r10, 1040(%rsp)
	movq	%rax, 1048(%rsp)
.Ltmp320:
	.cv_inline_site_id 141 within 42 inlined_at 14 116 0
	.cv_loc	141 12 3895 0
	leaq	anon.d3fe902d2fc543e5a5ebd510b0621c19.12(%rip), %rax
	movq	%rax, 32(%rsp)
	callq	_RINvNtCsaGRekH07FSF_4core5slice20copy_from_slice_implINtNtNtB4_3mem12maybe_uninit11MaybeUninithEECs2J74ZzqJeQl_5types
	movq	88(%rsp), %r9
.Ltmp321:
	.cv_loc	42 14 114 0
	movq	%r9, 2176(%rsp)
.Ltmp322:
	.cv_loc	42 14 115 0
	movq	1040(%rsp), %rdx
	movq	1048(%rsp), %r8
	leaq	944(%rsp), %rcx
	leaq	anon.d3fe902d2fc543e5a5ebd510b0621c19.12(%rip), %rax
	movq	%rax, 32(%rsp)
	callq	_RNvMNtCsaGRekH07FSF_4core5sliceSINtNtNtB4_3mem12maybe_uninit11MaybeUninithE12split_at_mutCs2J74ZzqJeQl_5types
	movq	80(%rsp), %r8
	movq	88(%rsp), %r9
	movq	944(%rsp), %rcx
	movq	952(%rsp), %rdx
	movq	%rcx, 2184(%rsp)
	movq	%rdx, 2192(%rsp)
	movq	960(%rsp), %r10
	movq	968(%rsp), %rax
	movq	%r10, 1040(%rsp)
	movq	%rax, 1048(%rsp)
.Ltmp323:
	.cv_inline_site_id 142 within 42 inlined_at 14 116 0
	.cv_loc	142 12 3895 0
	leaq	anon.d3fe902d2fc543e5a5ebd510b0621c19.12(%rip), %rax
	movq	%rax, 32(%rsp)
	callq	_RINvNtCsaGRekH07FSF_4core5slice20copy_from_slice_implINtNtNtB4_3mem12maybe_uninit11MaybeUninithEECs2J74ZzqJeQl_5types
.Ltmp324:
	.cv_loc	42 14 91 0
	jmp	.LBB26_58
.Ltmp325:
.LBB26_66:
	.cv_loc	42 14 95 0
	jmp	.LBB26_30
.LBB26_67:
.Ltmp326:
	.cv_loc	77 15 160 0
	movq	976(%rsp), %rax
	movq	%rax, 72(%rsp)
	movq	%rax, 2200(%rsp)
.Ltmp327:
	.cv_loc	77 15 161 0
	movq	984(%rsp), %rcx
	movq	%rcx, 2208(%rsp)
.Ltmp328:
	.cv_inline_site_id 143 within 77 inlined_at 15 179 0
	.cv_loc	143 9 1692 0
	cmpq	%rcx, %rax
.Ltmp329:
	.cv_loc	77 15 179 0
	je	.LBB26_69
.Ltmp330:
	.cv_loc	79 9 660 0
	movq	72(%rsp), %rax
.Ltmp331:
	movq	%rax, %rcx
	addq	$16, %rcx
.Ltmp332:
	.cv_loc	77 15 184 0
	movq	%rcx, 976(%rsp)
.Ltmp333:
	.cv_loc	77 15 189 0
	movq	%rax, 1176(%rsp)
.Ltmp334:
	.cv_loc	77 15 191 0
	jmp	.LBB26_70
.Ltmp335:
.LBB26_69:
	.cv_loc	77 15 180 0
	movq	$0, 1176(%rsp)
.Ltmp336:
.LBB26_70:
	.cv_loc	76 17 107 0
	leaq	976(%rsp), %rax
	addq	$16, %rax
	movq	%rax, 64(%rsp)
	movq	%rax, 2216(%rsp)
.Ltmp337:
	.cv_loc	77 1 1164 0
	movq	1176(%rsp), %rdx
	movl	$1, %eax
	xorl	%ecx, %ecx
	cmpq	$0, %rdx
	cmoveq	%rcx, %rax
	testq	$1, %rax
	je	.LBB26_72
.Ltmp338:
	.cv_loc	77 1 1165 0
	movq	64(%rsp), %rcx
	movq	1176(%rsp), %rdx
	movq	%rdx, 2224(%rsp)
.Ltmp339:
	.cv_loc	77 1 1165 0
	movq	%rdx, 2232(%rsp)
.Ltmp340:
	.cv_inline_site_id 144 within 77 inlined_at 1 1165 0
	.cv_loc	144 25 310 0
	callq	_RNCINvNtCsdKWIjqbzJ9K_5alloc3str17join_generic_copyehReEs_0Cs2J74ZzqJeQl_5types
.Ltmp341:
	.cv_loc	77 1 1165 0
	movq	%rax, 992(%rsp)
	movq	%rdx, 1000(%rsp)
.Ltmp342:
	.cv_loc	77 1 1165 0
	jmp	.LBB26_73
.Ltmp343:
.LBB26_72:
	.cv_loc	77 1 1166 0
	movq	$0, 992(%rsp)
	movq	%rax, 1000(%rsp)
.Ltmp344:
.LBB26_73:
	.cv_loc	42 14 100 0
	movq	992(%rsp), %rdx
	movl	$1, %eax
	xorl	%ecx, %ecx
	cmpq	$0, %rdx
	cmoveq	%rcx, %rax
	testq	$1, %rax
	je	.LBB26_75
	movq	392(%rsp), %r9
	movq	992(%rsp), %rcx
	movq	%rcx, 48(%rsp)
	movq	1000(%rsp), %rax
	movq	%rax, 56(%rsp)
	movq	%rcx, 2256(%rsp)
	movq	%rax, 2264(%rsp)
.Ltmp345:
	.cv_loc	42 14 115 0
	movq	1040(%rsp), %rdx
	movq	1048(%rsp), %r8
	leaq	1008(%rsp), %rcx
	leaq	anon.d3fe902d2fc543e5a5ebd510b0621c19.12(%rip), %rax
	movq	%rax, 32(%rsp)
	callq	_RNvMNtCsaGRekH07FSF_4core5sliceSINtNtNtB4_3mem12maybe_uninit11MaybeUninithE12split_at_mutCs2J74ZzqJeQl_5types
	movq	352(%rsp), %r8
	movq	392(%rsp), %r9
	movq	1008(%rsp), %rcx
	movq	1016(%rsp), %rdx
	movq	%rcx, 2272(%rsp)
	movq	%rdx, 2280(%rsp)
	movq	1024(%rsp), %r10
	movq	1032(%rsp), %rax
	movq	%r10, 1040(%rsp)
	movq	%rax, 1048(%rsp)
.Ltmp346:
	.cv_inline_site_id 145 within 42 inlined_at 14 116 0
	.cv_loc	145 12 3895 0
	leaq	anon.d3fe902d2fc543e5a5ebd510b0621c19.12(%rip), %rax
	movq	%rax, 32(%rsp)
	callq	_RINvNtCsaGRekH07FSF_4core5slice20copy_from_slice_implINtNtNtB4_3mem12maybe_uninit11MaybeUninithEECs2J74ZzqJeQl_5types
	movq	56(%rsp), %r9
.Ltmp347:
	.cv_loc	42 14 114 0
	movq	%r9, 2288(%rsp)
.Ltmp348:
	.cv_loc	42 14 115 0
	movq	1040(%rsp), %rdx
	movq	1048(%rsp), %r8
	leaq	1056(%rsp), %rcx
	leaq	anon.d3fe902d2fc543e5a5ebd510b0621c19.12(%rip), %rax
	movq	%rax, 32(%rsp)
	callq	_RNvMNtCsaGRekH07FSF_4core5sliceSINtNtNtB4_3mem12maybe_uninit11MaybeUninithE12split_at_mutCs2J74ZzqJeQl_5types
	movq	48(%rsp), %r8
	movq	56(%rsp), %r9
	movq	1056(%rsp), %rcx
	movq	1064(%rsp), %rdx
	movq	%rcx, 2296(%rsp)
	movq	%rdx, 2304(%rsp)
	movq	1072(%rsp), %r10
	movq	1080(%rsp), %rax
	movq	%r10, 1040(%rsp)
	movq	%rax, 1048(%rsp)
.Ltmp349:
	.cv_inline_site_id 146 within 42 inlined_at 14 116 0
	.cv_loc	146 12 3895 0
	leaq	anon.d3fe902d2fc543e5a5ebd510b0621c19.12(%rip), %rax
	movq	%rax, 32(%rsp)
	callq	_RINvNtCsaGRekH07FSF_4core5slice20copy_from_slice_implINtNtNtB4_3mem12maybe_uninit11MaybeUninithEECs2J74ZzqJeQl_5types
.Ltmp350:
	.cv_loc	42 14 100 0
	jmp	.LBB26_67
.Ltmp351:
.LBB26_75:
	.cv_loc	42 14 104 0
	jmp	.LBB26_30
.Ltmp352:
.Lfunc_end26:
	.section	.rdata,"dr",associative,_RINvNtCsdKWIjqbzJ9K_5alloc3str17join_generic_copyehReECs2J74ZzqJeQl_5types,unique,27
	.p2align	2, 0x0
.LJTI26_0:
	.long	.LBB26_16-.LJTI26_0
	.long	.LBB26_17-.LJTI26_0
	.long	.LBB26_18-.LJTI26_0
	.long	.LBB26_19-.LJTI26_0
	.long	.LBB26_20-.LJTI26_0
	.section	.text,"xr",one_only,_RINvNtCsdKWIjqbzJ9K_5alloc3str17join_generic_copyehReECs2J74ZzqJeQl_5types,unique,26
	.seh_endproc

	.def	_RINvNtNtCsaGRekH07FSF_4core3str11validations15next_code_pointINtNtNtB6_5slice4iter4IterhEECs2J74ZzqJeQl_5types;
	.scl	2;
	.type	32;
	.endef
	.section	.text,"xr",one_only,_RINvNtNtCsaGRekH07FSF_4core3str11validations15next_code_pointINtNtNtB6_5slice4iter4IterhEECs2J74ZzqJeQl_5types,unique,28
	.globl	_RINvNtNtCsaGRekH07FSF_4core3str11validations15next_code_pointINtNtNtB6_5slice4iter4IterhEECs2J74ZzqJeQl_5types
	.p2align	4
_RINvNtNtCsaGRekH07FSF_4core3str11validations15next_code_pointINtNtNtB6_5slice4iter4IterhEECs2J74ZzqJeQl_5types:
.Lfunc_begin27:
	.cv_func_id 147
	.cv_file	26 "/rustc/1be6b13be73dc12e98e51b403add4c41a0b77759\\library\\core\\src\\str\\validations.rs" "932ABB6839EBD86E67DDD2377549FFBB4D91A3FA8AE441181392B2B158B4FA6B" 3
	.cv_loc	147 26 35 0
.seh_proc _RINvNtNtCsaGRekH07FSF_4core3str11validations15next_code_pointINtNtNtB6_5slice4iter4IterhEECs2J74ZzqJeQl_5types
	subq	$216, %rsp
	.seh_stackalloc 216
	.seh_endprologue
	movq	%rcx, 56(%rsp)
	movq	%rcx, 120(%rsp)
.Ltmp353:
	.cv_inline_site_id 148 within 147 inlined_at 26 45 0
	.cv_loc	148 26 10 0
	movl	$2, 132(%rsp)
.Ltmp354:
	.cv_loc	147 26 37 0
	callq	_RNvXs2E_NtNtCsaGRekH07FSF_4core5slice4iterINtB6_4IterhENtNtNtNtBa_4iter6traits8iterator8Iterator4nextCs2J74ZzqJeQl_5types
	movq	%rax, 80(%rsp)
.Ltmp355:
	.cv_inline_site_id 149 within 147 inlined_at 26 37 0
	.cv_loc	149 1 2666 0
	movq	80(%rsp), %rdx
	movl	$1, %eax
	xorl	%ecx, %ecx
	cmpq	$0, %rdx
	cmoveq	%rcx, %rax
	testq	$1, %rax
	je	.LBB27_2
	.cv_loc	149 1 2667 0
	movq	80(%rsp), %rax
	movq	%rax, 136(%rsp)
.Ltmp356:
	.cv_loc	149 1 2667 0
	movq	%rax, 72(%rsp)
.Ltmp357:
	.cv_loc	147 26 37 0
	movq	72(%rsp), %rax
	movq	%rax, 144(%rsp)
	movb	(%rax), %al
	movb	%al, 55(%rsp)
	movb	%al, 155(%rsp)
.Ltmp358:
	.cv_loc	147 26 38 0
	cmpb	$-128, %al
	jb	.LBB27_5
	jmp	.LBB27_4
.Ltmp359:
.LBB27_2:
	.cv_inline_site_id 150 within 147 inlined_at 26 37 0
	.cv_loc	150 1 2681 0
	movl	anon.d3fe902d2fc543e5a5ebd510b0621c19.13(%rip), %ecx
	movl	anon.d3fe902d2fc543e5a5ebd510b0621c19.13+4(%rip), %eax
	movl	%ecx, 64(%rsp)
	movl	%eax, 68(%rsp)
.Ltmp360:
.LBB27_3:
	.cv_loc	147 26 69 0
	movl	64(%rsp), %eax
	movl	68(%rsp), %edx
	.seh_startepilogue
	addq	$216, %rsp
	.seh_endepilogue
	retq
.LBB27_4:
	.cv_loc	148 26 11 0
	movq	56(%rsp), %rcx
	movb	55(%rsp), %al
.Ltmp361:
	andb	$31, %al
	movzbl	%al, %eax
	movl	%eax, 48(%rsp)
	movl	%eax, 156(%rsp)
.Ltmp362:
	.cv_loc	147 26 48 0
	callq	_RNvXs2E_NtNtCsaGRekH07FSF_4core5slice4iterINtB6_4IterhENtNtNtNtBa_4iter6traits8iterator8Iterator4nextCs2J74ZzqJeQl_5types
	movq	%rax, 88(%rsp)
.Ltmp363:
	.cv_inline_site_id 151 within 147 inlined_at 26 48 0
	.cv_loc	151 1 1129 0
	movq	88(%rsp), %rdx
	movl	$1, %eax
	xorl	%ecx, %ecx
	cmpq	$0, %rdx
	cmoveq	%rcx, %rax
	testq	$1, %rax
	jne	.LBB27_6
	jmp	.LBB27_7
.Ltmp364:
.LBB27_5:
	.cv_loc	147 26 39 0
	movb	55(%rsp), %al
	movzbl	%al, %eax
	movl	%eax, 68(%rsp)
	movl	$1, 64(%rsp)
	.cv_file	27 "C:\\Users\\James\\Documents\\crates\\useful-rust-modules\\crates\\types\\src\\lib.rs" "D7D8E14380D1E59231DFCB266DAF89D4350D2D7AEDF05C83810D6571E6B67A68" 3
	.cv_loc	147 27 1 0
	jmp	.LBB27_3
.LBB27_6:
	.cv_loc	151 1 1130 0
	movb	55(%rsp), %al
	movl	48(%rsp), %ecx
.Ltmp365:
	movq	88(%rsp), %rdx
	movq	%rdx, 160(%rsp)
.Ltmp366:
	.cv_loc	147 26 48 0
	movb	(%rdx), %dl
	movb	%dl, 47(%rsp)
	movb	%dl, 175(%rsp)
.Ltmp367:
	.cv_inline_site_id 152 within 147 inlined_at 26 49 0
	.cv_loc	152 26 17 0
	shll	$6, %ecx
	andb	$63, %dl
	movzbl	%dl, %edx
	orl	%edx, %ecx
	movl	%ecx, 100(%rsp)
.Ltmp368:
	.cv_loc	147 26 50 0
	cmpb	$-32, %al
	jae	.LBB27_10
	jmp	.LBB27_9
.Ltmp369:
.LBB27_7:
	.cv_inline_site_id 153 within 151 inlined_at 1 1132 0
	.cv_loc	153 13 78 0
	leaq	anon.d3fe902d2fc543e5a5ebd510b0621c19.15(%rip), %rcx
	callq	_RNvNvNtCsaGRekH07FSF_4core4hint21unreachable_unchecked18precondition_checkCs2J74ZzqJeQl_5types
.Ltmp370:
.LBB27_8:
	.cv_loc	147 27 1 0
	ud2
.LBB27_9:
.Ltmp371:
	.cv_loc	147 26 68 0
	movl	100(%rsp), %eax
	movl	%eax, 68(%rsp)
	movl	$1, 64(%rsp)
.Ltmp372:
	.cv_loc	147 26 69 0
	jmp	.LBB27_3
.LBB27_10:
	.cv_loc	147 26 55 0
	movq	56(%rsp), %rcx
.Ltmp373:
	callq	_RNvXs2E_NtNtCsaGRekH07FSF_4core5slice4iterINtB6_4IterhENtNtNtNtBa_4iter6traits8iterator8Iterator4nextCs2J74ZzqJeQl_5types
	movq	%rax, 104(%rsp)
.Ltmp374:
	.cv_inline_site_id 154 within 147 inlined_at 26 55 0
	.cv_loc	154 1 1129 0
	movq	104(%rsp), %rdx
	movl	$1, %eax
	xorl	%ecx, %ecx
	cmpq	$0, %rdx
	cmoveq	%rcx, %rax
	testq	$1, %rax
	je	.LBB27_12
	.cv_loc	154 1 1130 0
	movb	55(%rsp), %al
	movl	48(%rsp), %ecx
	movb	47(%rsp), %dl
	movq	104(%rsp), %r8
	movq	%r8, 176(%rsp)
.Ltmp375:
	.cv_loc	147 26 55 0
	movb	(%r8), %r8b
	movb	%r8b, 191(%rsp)
.Ltmp376:
	.cv_loc	147 26 56 0
	andb	$63, %dl
	movzbl	%dl, %edx
	movl	%edx, 192(%rsp)
.Ltmp377:
	.cv_inline_site_id 155 within 147 inlined_at 26 56 0
	.cv_loc	155 26 17 0
	shll	$6, %edx
	andb	$63, %r8b
	movzbl	%r8b, %r8d
	orl	%r8d, %edx
	movl	%edx, 40(%rsp)
	movl	%edx, 196(%rsp)
.Ltmp378:
	.cv_loc	147 26 57 0
	shll	$12, %ecx
	orl	%edx, %ecx
	movl	%ecx, 100(%rsp)
	.cv_loc	147 26 58 0
	cmpb	$-16, %al
	jae	.LBB27_14
	jmp	.LBB27_13
.Ltmp379:
.LBB27_12:
	.cv_inline_site_id 156 within 154 inlined_at 1 1132 0
	.cv_loc	156 13 78 0
	leaq	anon.d3fe902d2fc543e5a5ebd510b0621c19.16(%rip), %rcx
	callq	_RNvNvNtCsaGRekH07FSF_4core4hint21unreachable_unchecked18precondition_checkCs2J74ZzqJeQl_5types
	jmp	.LBB27_8
.Ltmp380:
.LBB27_13:
	.cv_loc	147 26 50 0
	jmp	.LBB27_9
.LBB27_14:
	.cv_loc	147 26 63 0
	movq	56(%rsp), %rcx
.Ltmp381:
	callq	_RNvXs2E_NtNtCsaGRekH07FSF_4core5slice4iterINtB6_4IterhENtNtNtNtBa_4iter6traits8iterator8Iterator4nextCs2J74ZzqJeQl_5types
	movq	%rax, 112(%rsp)
.Ltmp382:
	.cv_inline_site_id 157 within 147 inlined_at 26 63 0
	.cv_loc	157 1 1129 0
	movq	112(%rsp), %rdx
	movl	$1, %eax
	xorl	%ecx, %ecx
	cmpq	$0, %rdx
	cmoveq	%rcx, %rax
	testq	$1, %rax
	je	.LBB27_16
	.cv_loc	157 1 1130 0
	movl	40(%rsp), %ecx
	movl	48(%rsp), %eax
	movq	112(%rsp), %rdx
	movq	%rdx, 200(%rsp)
.Ltmp383:
	.cv_loc	147 26 63 0
	movb	(%rdx), %dl
	movb	%dl, 215(%rsp)
.Ltmp384:
	.cv_loc	147 26 64 0
	andl	$7, %eax
	shll	$18, %eax
.Ltmp385:
	.cv_inline_site_id 158 within 147 inlined_at 26 64 0
	.cv_loc	158 26 17 0
	shll	$6, %ecx
	andb	$63, %dl
	movzbl	%dl, %edx
	orl	%edx, %ecx
.Ltmp386:
	.cv_loc	147 26 64 0
	orl	%ecx, %eax
	movl	%eax, 100(%rsp)
.Ltmp387:
	.cv_loc	147 26 58 0
	jmp	.LBB27_13
.LBB27_16:
.Ltmp388:
	.cv_inline_site_id 159 within 157 inlined_at 1 1132 0
	.cv_loc	159 13 78 0
	leaq	anon.d3fe902d2fc543e5a5ebd510b0621c19.17(%rip), %rcx
	callq	_RNvNvNtCsaGRekH07FSF_4core4hint21unreachable_unchecked18precondition_checkCs2J74ZzqJeQl_5types
	jmp	.LBB27_8
.Ltmp389:
.Lfunc_end27:
	.seh_endproc

	.def	_RINvNtNtCsaGRekH07FSF_4core3str11validations23next_code_point_reverseINtNtNtB6_5slice4iter4IterhEECs2J74ZzqJeQl_5types;
	.scl	2;
	.type	32;
	.endef
	.section	.text,"xr",one_only,_RINvNtNtCsaGRekH07FSF_4core3str11validations23next_code_point_reverseINtNtNtB6_5slice4iter4IterhEECs2J74ZzqJeQl_5types,unique,29
	.globl	_RINvNtNtCsaGRekH07FSF_4core3str11validations23next_code_point_reverseINtNtNtB6_5slice4iter4IterhEECs2J74ZzqJeQl_5types
	.p2align	4
_RINvNtNtCsaGRekH07FSF_4core3str11validations23next_code_point_reverseINtNtNtB6_5slice4iter4IterhEECs2J74ZzqJeQl_5types:
.Lfunc_begin28:
	.cv_func_id 160
	.cv_loc	160 26 78 0
.seh_proc _RINvNtNtCsaGRekH07FSF_4core3str11validations23next_code_point_reverseINtNtNtB6_5slice4iter4IterhEECs2J74ZzqJeQl_5types
	subq	$216, %rsp
	.seh_stackalloc 216
	.seh_endprologue
	movq	%rcx, 56(%rsp)
	movq	%rcx, 120(%rsp)
.Ltmp390:
	.cv_inline_site_id 161 within 160 inlined_at 26 94 0
	.cv_loc	161 26 10 0
	movl	$2, 132(%rsp)
.Ltmp391:
	.cv_inline_site_id 162 within 160 inlined_at 26 99 0
	.cv_loc	162 26 10 0
	movl	$3, 136(%rsp)
.Ltmp392:
	.cv_inline_site_id 163 within 160 inlined_at 26 104 0
	.cv_loc	163 26 10 0
	movl	$4, 140(%rsp)
.Ltmp393:
	.cv_loc	160 26 83 0
	callq	_RNvXs2F_NtNtCsaGRekH07FSF_4core5slice4iterINtB6_4IterhENtNtNtNtBa_4iter6traits12double_ended19DoubleEndedIterator9next_backCs2J74ZzqJeQl_5types
	movq	%rax, 80(%rsp)
.Ltmp394:
	.cv_inline_site_id 164 within 160 inlined_at 26 83 0
	.cv_loc	164 1 2666 0
	movq	80(%rsp), %rdx
	movl	$1, %eax
	xorl	%ecx, %ecx
	cmpq	$0, %rdx
	cmoveq	%rcx, %rax
	testq	$1, %rax
	je	.LBB28_2
	.cv_loc	164 1 2667 0
	movq	80(%rsp), %rax
	movq	%rax, 144(%rsp)
.Ltmp395:
	.cv_loc	164 1 2667 0
	movq	%rax, 72(%rsp)
.Ltmp396:
	.cv_loc	160 26 83 0
	movq	72(%rsp), %rax
	movq	%rax, 40(%rsp)
	movq	%rax, 152(%rsp)
	.cv_loc	160 26 84 0
	movb	(%rax), %al
	movb	%al, 55(%rsp)
	movb	%al, 167(%rsp)
	cmpb	$-128, %al
	jb	.LBB28_5
	jmp	.LBB28_4
.LBB28_2:
.Ltmp397:
	.cv_inline_site_id 165 within 160 inlined_at 26 83 0
	.cv_loc	165 1 2681 0
	movl	anon.d3fe902d2fc543e5a5ebd510b0621c19.13(%rip), %ecx
	movl	anon.d3fe902d2fc543e5a5ebd510b0621c19.13+4(%rip), %eax
	movl	%ecx, 64(%rsp)
	movl	%eax, 68(%rsp)
.Ltmp398:
.LBB28_3:
	.cv_loc	160 26 112 0
	jmp	.LBB28_19
.LBB28_4:
	.cv_loc	160 26 93 0
	movq	56(%rsp), %rcx
.Ltmp399:
	callq	_RNvXs2F_NtNtCsaGRekH07FSF_4core5slice4iterINtB6_4IterhENtNtNtNtBa_4iter6traits12double_ended19DoubleEndedIterator9next_backCs2J74ZzqJeQl_5types
	movq	%rax, 88(%rsp)
.Ltmp400:
	.cv_inline_site_id 166 within 160 inlined_at 26 93 0
	.cv_loc	166 1 1129 0
	movq	88(%rsp), %rdx
	movl	$1, %eax
	xorl	%ecx, %ecx
	cmpq	$0, %rdx
	cmoveq	%rcx, %rax
	testq	$1, %rax
	jne	.LBB28_6
	jmp	.LBB28_7
.Ltmp401:
.LBB28_5:
	.cv_loc	160 26 84 0
	movq	40(%rsp), %rax
	movb	(%rax), %al
	movb	%al, 215(%rsp)
.Ltmp402:
	.cv_loc	160 26 84 0
	movzbl	%al, %eax
	movl	%eax, 68(%rsp)
	movl	$1, 64(%rsp)
.Ltmp403:
	.cv_loc	160 27 1 0
	jmp	.LBB28_3
.LBB28_6:
.Ltmp404:
	.cv_loc	166 1 1130 0
	movq	88(%rsp), %rax
	movq	%rax, 168(%rsp)
.Ltmp405:
	.cv_loc	160 26 93 0
	movb	(%rax), %al
	movb	%al, 39(%rsp)
	movb	%al, 183(%rsp)
.Ltmp406:
	.cv_loc	161 26 11 0
	movb	%al, %cl
	andb	$31, %cl
	movzbl	%cl, %ecx
	movl	%ecx, 116(%rsp)
.Ltmp407:
	.cv_inline_site_id 167 within 160 inlined_at 26 95 0
	.cv_loc	167 26 24 0
	cmpb	$-64, %al
.Ltmp408:
	.cv_loc	160 26 95 0
	jl	.LBB28_10
	jmp	.LBB28_9
.Ltmp409:
.LBB28_7:
	.cv_inline_site_id 168 within 166 inlined_at 1 1132 0
	.cv_loc	168 13 78 0
	leaq	anon.d3fe902d2fc543e5a5ebd510b0621c19.18(%rip), %rcx
	callq	_RNvNvNtCsaGRekH07FSF_4core4hint21unreachable_unchecked18precondition_checkCs2J74ZzqJeQl_5types
.Ltmp410:
.LBB28_8:
	.cv_loc	160 27 1 0
	ud2
.LBB28_9:
.Ltmp411:
	.cv_loc	160 26 95 0
	jmp	.LBB28_11
.LBB28_10:
	.cv_loc	160 26 98 0
	movq	56(%rsp), %rcx
	callq	_RNvXs2F_NtNtCsaGRekH07FSF_4core5slice4iterINtB6_4IterhENtNtNtNtBa_4iter6traits12double_ended19DoubleEndedIterator9next_backCs2J74ZzqJeQl_5types
	movq	%rax, 96(%rsp)
.Ltmp412:
	.cv_inline_site_id 169 within 160 inlined_at 26 98 0
	.cv_loc	169 1 1129 0
	movq	96(%rsp), %rdx
	movl	$1, %eax
	xorl	%ecx, %ecx
	cmpq	$0, %rdx
	cmoveq	%rcx, %rax
	testq	$1, %rax
	jne	.LBB28_12
	jmp	.LBB28_13
.Ltmp413:
.LBB28_11:
	.cv_inline_site_id 170 within 160 inlined_at 26 109 0
	.cv_loc	170 26 17 0
	movb	55(%rsp), %cl
.Ltmp414:
	movl	116(%rsp), %eax
	shll	$6, %eax
	andb	$63, %cl
	movzbl	%cl, %ecx
	orl	%ecx, %eax
	movl	%eax, 116(%rsp)
.Ltmp415:
	.cv_loc	160 26 111 0
	movl	116(%rsp), %eax
	movl	%eax, 68(%rsp)
	movl	$1, 64(%rsp)
.Ltmp416:
	.cv_loc	160 26 112 0
	jmp	.LBB28_19
.LBB28_12:
.Ltmp417:
	.cv_loc	169 1 1130 0
	movq	96(%rsp), %rax
	movq	%rax, 184(%rsp)
.Ltmp418:
	.cv_loc	160 26 98 0
	movb	(%rax), %al
	movb	%al, 38(%rsp)
	movb	%al, 199(%rsp)
.Ltmp419:
	.cv_loc	162 26 11 0
	movb	%al, %cl
	andb	$15, %cl
	movzbl	%cl, %ecx
	movl	%ecx, 116(%rsp)
.Ltmp420:
	.cv_inline_site_id 171 within 160 inlined_at 26 100 0
	.cv_loc	171 26 24 0
	cmpb	$-64, %al
.Ltmp421:
	.cv_loc	160 26 100 0
	jl	.LBB28_15
	jmp	.LBB28_14
.Ltmp422:
.LBB28_13:
	.cv_inline_site_id 172 within 169 inlined_at 1 1132 0
	.cv_loc	172 13 78 0
	leaq	anon.d3fe902d2fc543e5a5ebd510b0621c19.19(%rip), %rcx
	callq	_RNvNvNtCsaGRekH07FSF_4core4hint21unreachable_unchecked18precondition_checkCs2J74ZzqJeQl_5types
	jmp	.LBB28_8
.Ltmp423:
.LBB28_14:
	.cv_loc	160 26 100 0
	jmp	.LBB28_16
.LBB28_15:
	.cv_loc	160 26 103 0
	movq	56(%rsp), %rcx
	callq	_RNvXs2F_NtNtCsaGRekH07FSF_4core5slice4iterINtB6_4IterhENtNtNtNtBa_4iter6traits12double_ended19DoubleEndedIterator9next_backCs2J74ZzqJeQl_5types
	movq	%rax, 104(%rsp)
.Ltmp424:
	.cv_inline_site_id 173 within 160 inlined_at 26 103 0
	.cv_loc	173 1 1129 0
	movq	104(%rsp), %rdx
	movl	$1, %eax
	xorl	%ecx, %ecx
	cmpq	$0, %rdx
	cmoveq	%rcx, %rax
	testq	$1, %rax
	jne	.LBB28_17
	jmp	.LBB28_18
.Ltmp425:
.LBB28_16:
	.cv_inline_site_id 174 within 160 inlined_at 26 107 0
	.cv_loc	174 26 17 0
	movb	39(%rsp), %cl
.Ltmp426:
	movl	116(%rsp), %eax
	shll	$6, %eax
	andb	$63, %cl
	movzbl	%cl, %ecx
	orl	%ecx, %eax
	movl	%eax, 116(%rsp)
.Ltmp427:
	.cv_loc	160 26 95 0
	jmp	.LBB28_11
.LBB28_17:
	.cv_loc	173 1 1130 0
	movb	38(%rsp), %cl
.Ltmp428:
	movq	104(%rsp), %rax
	movq	%rax, 200(%rsp)
.Ltmp429:
	.cv_loc	160 26 103 0
	movb	(%rax), %al
	movb	%al, 214(%rsp)
.Ltmp430:
	.cv_loc	163 26 11 0
	andb	$7, %al
	movzbl	%al, %eax
	movl	%eax, 116(%rsp)
.Ltmp431:
	.cv_inline_site_id 175 within 160 inlined_at 26 105 0
	.cv_loc	175 26 17 0
	movl	116(%rsp), %eax
	shll	$6, %eax
	andb	$63, %cl
	movzbl	%cl, %ecx
	orl	%ecx, %eax
	movl	%eax, 116(%rsp)
.Ltmp432:
	.cv_loc	160 26 100 0
	jmp	.LBB28_16
.LBB28_18:
.Ltmp433:
	.cv_inline_site_id 176 within 173 inlined_at 1 1132 0
	.cv_loc	176 13 78 0
	leaq	anon.d3fe902d2fc543e5a5ebd510b0621c19.20(%rip), %rcx
	callq	_RNvNvNtCsaGRekH07FSF_4core4hint21unreachable_unchecked18precondition_checkCs2J74ZzqJeQl_5types
	jmp	.LBB28_8
.Ltmp434:
.LBB28_19:
	.cv_loc	160 26 112 0
	movl	64(%rsp), %eax
	movl	68(%rsp), %edx
	.seh_startepilogue
	addq	$216, %rsp
	.seh_endepilogue
	retq
.Ltmp435:
.Lfunc_end28:
	.seh_endproc

	.def	_RINvNvMs2_NtCsdKWIjqbzJ9K_5alloc7raw_vecINtB8_11RawVecInnerpE7reserve21do_reserve_and_handleNtNtBa_5alloc6GlobalECs2J74ZzqJeQl_5types;
	.scl	2;
	.type	32;
	.endef
	.section	.text,"xr",one_only,_RINvNvMs2_NtCsdKWIjqbzJ9K_5alloc7raw_vecINtB8_11RawVecInnerpE7reserve21do_reserve_and_handleNtNtBa_5alloc6GlobalECs2J74ZzqJeQl_5types,unique,30
	.globl	_RINvNvMs2_NtCsdKWIjqbzJ9K_5alloc7raw_vecINtB8_11RawVecInnerpE7reserve21do_reserve_and_handleNtNtBa_5alloc6GlobalECs2J74ZzqJeQl_5types
	.p2align	4
_RINvNvMs2_NtCsdKWIjqbzJ9K_5alloc7raw_vecINtB8_11RawVecInnerpE7reserve21do_reserve_and_handleNtNtBa_5alloc6GlobalECs2J74ZzqJeQl_5types:
.Lfunc_begin29:
	.cv_func_id 177
	.cv_loc	177 6 550 0
.seh_proc _RINvNvMs2_NtCsdKWIjqbzJ9K_5alloc7raw_vecINtB8_11RawVecInnerpE7reserve21do_reserve_and_handleNtNtBa_5alloc6GlobalECs2J74ZzqJeQl_5types
	subq	$120, %rsp
	.seh_stackalloc 120
	.seh_endprologue
	movq	160(%rsp), %rax
	movq	%rcx, 64(%rsp)
	movq	%rdx, 72(%rsp)
	movq	%r8, 80(%rsp)
	movq	%r9, 88(%rsp)
	movq	%rax, 96(%rsp)
.Ltmp436:
	.cv_loc	177 6 557 0
	movq	%rax, 32(%rsp)
	callq	_RNvMs2_NtCsdKWIjqbzJ9K_5alloc7raw_vecNtB5_11RawVecInner14grow_amortizedCs2J74ZzqJeQl_5types
	movq	%rax, 48(%rsp)
	movq	%rdx, 56(%rsp)
	movabsq	$-9223372036854775807, %rdx
	movl	$1, %eax
	xorl	%ecx, %ecx
	cmpq	%rdx, 48(%rsp)
	cmoveq	%rcx, %rax
	testq	$1, %rax
	je	.LBB29_2
	movq	48(%rsp), %rcx
	movq	56(%rsp), %rdx
	movq	%rcx, 104(%rsp)
	movq	%rdx, 112(%rsp)
	.cv_loc	177 6 558 0
	callq	_RNvNtCsdKWIjqbzJ9K_5alloc7raw_vec12handle_error
.Ltmp437:
.LBB29_2:
	.cv_loc	177 6 560 0
	nop
	.seh_startepilogue
	addq	$120, %rsp
	.seh_endepilogue
	retq
.Ltmp438:
.Lfunc_end29:
	.seh_endproc

	.def	_RINvXs1_NtNtNtCsaGRekH07FSF_4core4iter8adapters6filterINtB6_6FilterNtNtNtBc_3str4iter5CharsNCNvXNtNtCs2J74ZzqJeQl_5types6string3strReNtB1y_6StrExt13is_palindrome0ENtNtNtBa_6traits8iterator8Iterator4folduNCINvNvB2B_8for_each4callcNCINvXsd_NtCsdKWIjqbzJ9K_5alloc6stringNtB3O_6StringINtNtB2F_7collect6ExtendcE6extendBQ_E0E0EB1A_;
	.scl	2;
	.type	32;
	.endef
	.section	.text,"xr",one_only,_RINvXs1_NtNtNtCsaGRekH07FSF_4core4iter8adapters6filterINtB6_6FilterNtNtNtBc_3str4iter5CharsNCNvXNtNtCs2J74ZzqJeQl_5types6string3strReNtB1y_6StrExt13is_palindrome0ENtNtNtBa_6traits8iterator8Iterator4folduNCINvNvB2B_8for_each4callcNCINvXsd_NtCsdKWIjqbzJ9K_5alloc6stringNtB3O_6StringINtNtB2F_7collect6ExtendcE6extendBQ_E0E0EB1A_,unique,31
	.globl	_RINvXs1_NtNtNtCsaGRekH07FSF_4core4iter8adapters6filterINtB6_6FilterNtNtNtBc_3str4iter5CharsNCNvXNtNtCs2J74ZzqJeQl_5types6string3strReNtB1y_6StrExt13is_palindrome0ENtNtNtBa_6traits8iterator8Iterator4folduNCINvNvB2B_8for_each4callcNCINvXsd_NtCsdKWIjqbzJ9K_5alloc6stringNtB3O_6StringINtNtB2F_7collect6ExtendcE6extendBQ_E0E0EB1A_
	.p2align	4
_RINvXs1_NtNtNtCsaGRekH07FSF_4core4iter8adapters6filterINtB6_6FilterNtNtNtBc_3str4iter5CharsNCNvXNtNtCs2J74ZzqJeQl_5types6string3strReNtB1y_6StrExt13is_palindrome0ENtNtNtBa_6traits8iterator8Iterator4folduNCINvNvB2B_8for_each4callcNCINvXsd_NtCsdKWIjqbzJ9K_5alloc6stringNtB3O_6StringINtNtB2F_7collect6ExtendcE6extendBQ_E0E0EB1A_:
.Lfunc_begin30:
	.cv_func_id 178
	.cv_file	28 "/rustc/1be6b13be73dc12e98e51b403add4c41a0b77759\\library\\core\\src\\iter\\adapters\\filter.rs" "4EF0E5DA73E50E995E3911D47E093D45164713D0F2AAB4D8054375C40A1B9AAE" 3
	.cv_loc	178 28 155 0
.seh_proc _RINvXs1_NtNtNtCsaGRekH07FSF_4core4iter8adapters6filterINtB6_6FilterNtNtNtBc_3str4iter5CharsNCNvXNtNtCs2J74ZzqJeQl_5types6string3strReNtB1y_6StrExt13is_palindrome0ENtNtNtBa_6traits8iterator8Iterator4folduNCINvNvB2B_8for_each4callcNCINvXsd_NtCsdKWIjqbzJ9K_5alloc6stringNtB3O_6StringINtNtB2F_7collect6ExtendcE6extendBQ_E0E0EB1A_
	subq	$72, %rsp
	.seh_stackalloc 72
	.seh_endprologue
	movq	%rcx, 32(%rsp)
	movq	%rdx, 40(%rsp)
	movq	%r8, 56(%rsp)
.Ltmp439:
	.cv_loc	178 28 159 0
	callq	_RINvYNtNtNtCsaGRekH07FSF_4core3str4iter5CharsNtNtNtNtB9_4iter6traits8iterator8Iterator4folduNCINvNtNtBN_8adapters6filter11filter_foldcuNCNvXNtNtCs2J74ZzqJeQl_5types6string3strReNtB2g_6StrExt13is_palindrome0NCINvNvBH_8for_each4callcNCINvXsd_NtCsdKWIjqbzJ9K_5alloc6stringNtB3Q_6StringINtNtBL_7collect6ExtendcE6extendINtB1x_6FilterB3_B29_EE0E0E0EB2i_
	.cv_loc	178 28 160 0
	nop
	.seh_startepilogue
	addq	$72, %rsp
	.seh_endepilogue
	retq
.Ltmp440:
.Lfunc_end30:
	.seh_endproc

	.def	_RINvXs2_NtNtCsaGRekH07FSF_4core5array4iterINtB6_8IntoItercKj3_ENtNtNtNtBa_4iter6traits8iterator8Iterator4folduNCINvNvBZ_8for_each4callcNCINvXsd_NtCsdKWIjqbzJ9K_5alloc6stringNtB2i_6StringINtNtB13_7collect6ExtendcE6extendNtNtBa_4char11ToUppercaseE0E0ECs2J74ZzqJeQl_5types;
	.scl	2;
	.type	32;
	.endef
	.section	.text,"xr",one_only,_RINvXs2_NtNtCsaGRekH07FSF_4core5array4iterINtB6_8IntoItercKj3_ENtNtNtNtBa_4iter6traits8iterator8Iterator4folduNCINvNvBZ_8for_each4callcNCINvXsd_NtCsdKWIjqbzJ9K_5alloc6stringNtB2i_6StringINtNtB13_7collect6ExtendcE6extendNtNtBa_4char11ToUppercaseE0E0ECs2J74ZzqJeQl_5types,unique,32
	.globl	_RINvXs2_NtNtCsaGRekH07FSF_4core5array4iterINtB6_8IntoItercKj3_ENtNtNtNtBa_4iter6traits8iterator8Iterator4folduNCINvNvBZ_8for_each4callcNCINvXsd_NtCsdKWIjqbzJ9K_5alloc6stringNtB2i_6StringINtNtB13_7collect6ExtendcE6extendNtNtBa_4char11ToUppercaseE0E0ECs2J74ZzqJeQl_5types
	.p2align	4
_RINvXs2_NtNtCsaGRekH07FSF_4core5array4iterINtB6_8IntoItercKj3_ENtNtNtNtBa_4iter6traits8iterator8Iterator4folduNCINvNvBZ_8for_each4callcNCINvXsd_NtCsdKWIjqbzJ9K_5alloc6stringNtB2i_6StringINtNtB13_7collect6ExtendcE6extendNtNtBa_4char11ToUppercaseE0E0ECs2J74ZzqJeQl_5types:
.Lfunc_begin31:
	.cv_func_id 179
	.cv_file	29 "/rustc/1be6b13be73dc12e98e51b403add4c41a0b77759\\library\\core\\src\\array\\iter.rs" "FF710496BA82EDC0B2D7C8E569B243267EB93BF12F9036689150D86690AC5E90" 3
	.cv_loc	179 29 249 0
.seh_proc _RINvXs2_NtNtCsaGRekH07FSF_4core5array4iterINtB6_8IntoItercKj3_ENtNtNtNtBa_4iter6traits8iterator8Iterator4folduNCINvNvBZ_8for_each4callcNCINvXsd_NtCsdKWIjqbzJ9K_5alloc6stringNtB2i_6StringINtNtB13_7collect6ExtendcE6extendNtNtBa_4char11ToUppercaseE0E0ECs2J74ZzqJeQl_5types
	subq	$120, %rsp
	.seh_stackalloc 120
	.seh_endprologue
	movq	%rcx, 40(%rsp)
.Ltmp441:
	movq	%rdx, 72(%rsp)
.Ltmp442:
	.cv_inline_site_id 180 within 179 inlined_at 29 253 0
	.cv_loc	180 29 31 0
	movq	%rcx, 80(%rsp)
	movq	$3, 88(%rsp)
.Ltmp443:
	.cv_file	30 "/rustc/1be6b13be73dc12e98e51b403add4c41a0b77759\\library\\core\\src\\ops\\try_trait.rs" "36EA6CB0633D82A57F3BF4D219F52C5D3D5C4B15CAB94DD56E97D694EEEF4CDC" 3
	.cv_file	31 "/rustc/1be6b13be73dc12e98e51b403add4c41a0b77759\\library\\core\\src\\array\\iter\\iter_inner.rs" "B12FFCB34AEAC42367411691E5DD9FEDF723140CBD9D6C0BFBCFB9694CBE4105" 3
	.cv_inline_site_id 181 within 180 inlined_at 31 202 0
	.cv_loc	181 30 414 0
	movq	%rdx, 96(%rsp)
.Ltmp444:
	.cv_loc	181 31 214 0
	movq	%rcx, %rax
	addq	$16, %rax
	movq	%rax, 104(%rsp)
	movq	$3, 112(%rsp)
.Ltmp445:
	.cv_loc	181 31 215 0
	movq	%rax, 48(%rsp)
	movq	$3, 56(%rsp)
	movq	%rdx, 64(%rsp)
	leaq	48(%rsp), %rdx
	callq	_RINvXs_NtNtCsaGRekH07FSF_4core3ops11index_rangeNtB5_10IndexRangeNtNtNtNtB9_4iter6traits8iterator8Iterator8try_folduNCINvMs6_NtNtNtB9_5array4iter10iter_innerINtB1Y_15PolymorphicIterSINtNtNtB9_3mem12maybe_uninit11MaybeUninitcEE8try_folduNCINvMNtB7_9try_traitINtB3R_17NeverShortCircuituE10wrap_mut_2ucNCINvNvB10_8for_each4callcNCINvXsd_NtCsdKWIjqbzJ9K_5alloc6stringNtB5l_6StringINtNtB14_7collect6ExtendcE6extendNtNtB9_4char11ToUppercaseE0E0E0B46_E0B46_ECs2J74ZzqJeQl_5types
	movq	40(%rsp), %rcx
.Ltmp446:
	.cv_loc	179 29 254 0
	callq	_RINvNtCsaGRekH07FSF_4core3ptr13drop_in_placeINtNtNtB4_5array4iter8IntoItercKj3_EECs2J74ZzqJeQl_5types
	nop
	.seh_startepilogue
	addq	$120, %rsp
	.seh_endepilogue
	retq
.Ltmp447:
.Lfunc_end31:
	.seh_endproc

	.def	_RINvXs5_NtCsdKWIjqbzJ9K_5alloc6stringNtB6_6StringINtNtNtNtCsaGRekH07FSF_4core4iter6traits7collect12FromIteratorcE9from_iterINtNtNtBS_8adapters3rev3RevNtNtNtBU_3str4iter5CharsEECs2J74ZzqJeQl_5types;
	.scl	2;
	.type	32;
	.endef
	.section	.text,"xr",one_only,_RINvXs5_NtCsdKWIjqbzJ9K_5alloc6stringNtB6_6StringINtNtNtNtCsaGRekH07FSF_4core4iter6traits7collect12FromIteratorcE9from_iterINtNtNtBS_8adapters3rev3RevNtNtNtBU_3str4iter5CharsEECs2J74ZzqJeQl_5types,unique,33
	.globl	_RINvXs5_NtCsdKWIjqbzJ9K_5alloc6stringNtB6_6StringINtNtNtNtCsaGRekH07FSF_4core4iter6traits7collect12FromIteratorcE9from_iterINtNtNtBS_8adapters3rev3RevNtNtNtBU_3str4iter5CharsEECs2J74ZzqJeQl_5types
	.p2align	4
_RINvXs5_NtCsdKWIjqbzJ9K_5alloc6stringNtB6_6StringINtNtNtNtCsaGRekH07FSF_4core4iter6traits7collect12FromIteratorcE9from_iterINtNtNtBS_8adapters3rev3RevNtNtNtBU_3str4iter5CharsEECs2J74ZzqJeQl_5types:
.Lfunc_begin32:
	.cv_func_id 182
	.cv_file	32 "/rustc/1be6b13be73dc12e98e51b403add4c41a0b77759\\library\\alloc\\src\\string.rs" "F0D2FFA9FCCA34AAF6482F81134551267674AD6881699607FFC29232413E094E" 3
	.cv_loc	182 32 2351 0
.seh_proc _RINvXs5_NtCsdKWIjqbzJ9K_5alloc6stringNtB6_6StringINtNtNtNtCsaGRekH07FSF_4core4iter6traits7collect12FromIteratorcE9from_iterINtNtNtBS_8adapters3rev3RevNtNtNtBU_3str4iter5CharsEECs2J74ZzqJeQl_5types
	subq	$120, %rsp
	.seh_stackalloc 120
	.seh_endprologue
	movq	%rcx, 40(%rsp)
	movq	%rcx, 48(%rsp)
	movq	%rdx, 104(%rsp)
	movq	%r8, 112(%rsp)
.Ltmp448:
	.cv_inline_site_id 183 within 182 inlined_at 32 2352 0
	.cv_inline_site_id 184 within 183 inlined_at 32 438 0
	.cv_loc	184 5 464 0
	movq	$0, 80(%rsp)
	movl	$1, %eax
	movq	%rax, 88(%rsp)
	movq	$0, 96(%rsp)
.Ltmp449:
	.cv_loc	183 32 438 0
	movq	80(%rsp), %rax
	movq	%rax, 56(%rsp)
	movq	88(%rsp), %rax
	movq	%rax, 64(%rsp)
	movq	96(%rsp), %rax
	movq	%rax, 72(%rsp)
.Ltmp450:
	.cv_loc	182 32 2353 0
	leaq	56(%rsp), %rcx
	callq	_RINvXsd_NtCsdKWIjqbzJ9K_5alloc6stringNtB6_6StringINtNtNtNtCsaGRekH07FSF_4core4iter6traits7collect6ExtendcE6extendINtNtNtBS_8adapters3rev3RevNtNtNtBU_3str4iter5CharsEECs2J74ZzqJeQl_5types
	movq	40(%rsp), %rcx
	movq	48(%rsp), %rax
	.cv_loc	182 32 2354 0
	movq	56(%rsp), %rdx
	movq	%rdx, (%rcx)
	movq	64(%rsp), %rdx
	movq	%rdx, 8(%rcx)
	movq	72(%rsp), %rdx
	movq	%rdx, 16(%rcx)
.Ltmp451:
	.cv_loc	182 32 2355 0
	.seh_startepilogue
	addq	$120, %rsp
	.seh_endepilogue
	retq
.Ltmp452:
.Lfunc_end32:
	.seh_endproc

	.def	_RINvXs5_NtCsdKWIjqbzJ9K_5alloc6stringNtB6_6StringINtNtNtNtCsaGRekH07FSF_4core4iter6traits7collect12FromIteratorcE9from_iterINtNtNtBS_8adapters6filter6FilterNtNtNtBU_3str4iter5CharsNCNvXNtNtCs2J74ZzqJeQl_5types6string3strReNtB2Z_6StrExt13is_palindrome0EEB31_;
	.scl	2;
	.type	32;
	.endef
	.section	.text,"xr",one_only,_RINvXs5_NtCsdKWIjqbzJ9K_5alloc6stringNtB6_6StringINtNtNtNtCsaGRekH07FSF_4core4iter6traits7collect12FromIteratorcE9from_iterINtNtNtBS_8adapters6filter6FilterNtNtNtBU_3str4iter5CharsNCNvXNtNtCs2J74ZzqJeQl_5types6string3strReNtB2Z_6StrExt13is_palindrome0EEB31_,unique,34
	.globl	_RINvXs5_NtCsdKWIjqbzJ9K_5alloc6stringNtB6_6StringINtNtNtNtCsaGRekH07FSF_4core4iter6traits7collect12FromIteratorcE9from_iterINtNtNtBS_8adapters6filter6FilterNtNtNtBU_3str4iter5CharsNCNvXNtNtCs2J74ZzqJeQl_5types6string3strReNtB2Z_6StrExt13is_palindrome0EEB31_
	.p2align	4
_RINvXs5_NtCsdKWIjqbzJ9K_5alloc6stringNtB6_6StringINtNtNtNtCsaGRekH07FSF_4core4iter6traits7collect12FromIteratorcE9from_iterINtNtNtBS_8adapters6filter6FilterNtNtNtBU_3str4iter5CharsNCNvXNtNtCs2J74ZzqJeQl_5types6string3strReNtB2Z_6StrExt13is_palindrome0EEB31_:
.Lfunc_begin33:
	.cv_func_id 185
	.cv_loc	185 32 2351 0
.seh_proc _RINvXs5_NtCsdKWIjqbzJ9K_5alloc6stringNtB6_6StringINtNtNtNtCsaGRekH07FSF_4core4iter6traits7collect12FromIteratorcE9from_iterINtNtNtBS_8adapters6filter6FilterNtNtNtBU_3str4iter5CharsNCNvXNtNtCs2J74ZzqJeQl_5types6string3strReNtB2Z_6StrExt13is_palindrome0EEB31_
	subq	$120, %rsp
	.seh_stackalloc 120
	.seh_endprologue
	movq	%rcx, 40(%rsp)
	movq	%rcx, 48(%rsp)
	movq	%rdx, 104(%rsp)
	movq	%r8, 112(%rsp)
.Ltmp453:
	.cv_inline_site_id 186 within 185 inlined_at 32 2352 0
	.cv_inline_site_id 187 within 186 inlined_at 32 438 0
	.cv_loc	187 5 464 0
	movq	$0, 80(%rsp)
	movl	$1, %eax
	movq	%rax, 88(%rsp)
	movq	$0, 96(%rsp)
.Ltmp454:
	.cv_loc	186 32 438 0
	movq	80(%rsp), %rax
	movq	%rax, 56(%rsp)
	movq	88(%rsp), %rax
	movq	%rax, 64(%rsp)
	movq	96(%rsp), %rax
	movq	%rax, 72(%rsp)
.Ltmp455:
	.cv_loc	185 32 2353 0
	leaq	56(%rsp), %rcx
	callq	_RINvXsd_NtCsdKWIjqbzJ9K_5alloc6stringNtB6_6StringINtNtNtNtCsaGRekH07FSF_4core4iter6traits7collect6ExtendcE6extendINtNtNtBS_8adapters6filter6FilterNtNtNtBU_3str4iter5CharsNCNvXNtNtCs2J74ZzqJeQl_5types6string3strReNtB2P_6StrExt13is_palindrome0EEB2R_
	movq	40(%rsp), %rcx
	movq	48(%rsp), %rax
	.cv_loc	185 32 2354 0
	movq	56(%rsp), %rdx
	movq	%rdx, (%rcx)
	movq	64(%rsp), %rdx
	movq	%rdx, 8(%rcx)
	movq	72(%rsp), %rdx
	movq	%rdx, 16(%rcx)
.Ltmp456:
	.cv_loc	185 32 2355 0
	.seh_startepilogue
	addq	$120, %rsp
	.seh_endepilogue
	retq
.Ltmp457:
.Lfunc_end33:
	.seh_endproc

	.def	_RINvXs5_NtCsdKWIjqbzJ9K_5alloc6stringNtB6_6StringINtNtNtNtCsaGRekH07FSF_4core4iter6traits7collect12FromIteratorcE9from_iterNtNtBU_4char11ToUppercaseECs2J74ZzqJeQl_5types;
	.scl	2;
	.type	32;
	.endef
	.section	.text,"xr",one_only,_RINvXs5_NtCsdKWIjqbzJ9K_5alloc6stringNtB6_6StringINtNtNtNtCsaGRekH07FSF_4core4iter6traits7collect12FromIteratorcE9from_iterNtNtBU_4char11ToUppercaseECs2J74ZzqJeQl_5types,unique,35
	.globl	_RINvXs5_NtCsdKWIjqbzJ9K_5alloc6stringNtB6_6StringINtNtNtNtCsaGRekH07FSF_4core4iter6traits7collect12FromIteratorcE9from_iterNtNtBU_4char11ToUppercaseECs2J74ZzqJeQl_5types
	.p2align	4
_RINvXs5_NtCsdKWIjqbzJ9K_5alloc6stringNtB6_6StringINtNtNtNtCsaGRekH07FSF_4core4iter6traits7collect12FromIteratorcE9from_iterNtNtBU_4char11ToUppercaseECs2J74ZzqJeQl_5types:
.Lfunc_begin34:
	.cv_func_id 188
	.cv_loc	188 32 2351 0
.seh_proc _RINvXs5_NtCsdKWIjqbzJ9K_5alloc6stringNtB6_6StringINtNtNtNtCsaGRekH07FSF_4core4iter6traits7collect12FromIteratorcE9from_iterNtNtBU_4char11ToUppercaseECs2J74ZzqJeQl_5types
	subq	$104, %rsp
	.seh_stackalloc 104
	.seh_endprologue
	movq	%rcx, 40(%rsp)
	movq	%rcx, 48(%rsp)
.Ltmp458:
	.cv_inline_site_id 189 within 188 inlined_at 32 2352 0
	.cv_inline_site_id 190 within 189 inlined_at 32 438 0
	.cv_loc	190 5 464 0
	movq	$0, 80(%rsp)
	movl	$1, %eax
	movq	%rax, 88(%rsp)
	movq	$0, 96(%rsp)
.Ltmp459:
	.cv_loc	189 32 438 0
	movq	80(%rsp), %rax
	movq	%rax, 56(%rsp)
	movq	88(%rsp), %rax
	movq	%rax, 64(%rsp)
	movq	96(%rsp), %rax
	movq	%rax, 72(%rsp)
.Ltmp460:
	.cv_loc	188 32 2353 0
	leaq	56(%rsp), %rcx
	callq	_RINvXsd_NtCsdKWIjqbzJ9K_5alloc6stringNtB6_6StringINtNtNtNtCsaGRekH07FSF_4core4iter6traits7collect6ExtendcE6extendNtNtBU_4char11ToUppercaseECs2J74ZzqJeQl_5types
.Ltmp461:
	movq	40(%rsp), %rcx
	movq	48(%rsp), %rax
	.cv_loc	188 32 2354 0
	movq	56(%rsp), %rdx
	movq	%rdx, (%rcx)
	movq	64(%rsp), %rdx
	movq	%rdx, 8(%rcx)
	movq	72(%rsp), %rdx
	movq	%rdx, 16(%rcx)
.Ltmp462:
	.cv_loc	188 32 2355 0
	.seh_startepilogue
	addq	$104, %rsp
	.seh_endepilogue
	retq
.Ltmp463:
.Lfunc_end34:
	.seh_endproc

	.def	_RINvXsE_NtCsaGRekH07FSF_4core4charNtB6_11ToUppercaseNtNtNtNtB8_4iter6traits8iterator8Iterator4folduNCINvNvBO_8for_each4callcNCINvXsd_NtCsdKWIjqbzJ9K_5alloc6stringNtB27_6StringINtNtBS_7collect6ExtendcE6extendBw_E0E0ECs2J74ZzqJeQl_5types;
	.scl	2;
	.type	32;
	.endef
	.section	.text,"xr",one_only,_RINvXsE_NtCsaGRekH07FSF_4core4charNtB6_11ToUppercaseNtNtNtNtB8_4iter6traits8iterator8Iterator4folduNCINvNvBO_8for_each4callcNCINvXsd_NtCsdKWIjqbzJ9K_5alloc6stringNtB27_6StringINtNtBS_7collect6ExtendcE6extendBw_E0E0ECs2J74ZzqJeQl_5types,unique,36
	.globl	_RINvXsE_NtCsaGRekH07FSF_4core4charNtB6_11ToUppercaseNtNtNtNtB8_4iter6traits8iterator8Iterator4folduNCINvNvBO_8for_each4callcNCINvXsd_NtCsdKWIjqbzJ9K_5alloc6stringNtB27_6StringINtNtBS_7collect6ExtendcE6extendBw_E0E0ECs2J74ZzqJeQl_5types
	.p2align	4
_RINvXsE_NtCsaGRekH07FSF_4core4charNtB6_11ToUppercaseNtNtNtNtB8_4iter6traits8iterator8Iterator4folduNCINvNvBO_8for_each4callcNCINvXsd_NtCsdKWIjqbzJ9K_5alloc6stringNtB27_6StringINtNtBS_7collect6ExtendcE6extendBw_E0E0ECs2J74ZzqJeQl_5types:
.Lfunc_begin35:
	.cv_func_id 191
	.cv_file	33 "/rustc/1be6b13be73dc12e98e51b403add4c41a0b77759\\library\\core\\src\\char\\mod.rs" "F9E7A4662B7B2796F5B393DA88DC3B79FD725F770F060F79C7E5F24DE4900A8D" 3
	.cv_loc	191 33 383 0
.seh_proc _RINvXsE_NtCsaGRekH07FSF_4core4charNtB6_11ToUppercaseNtNtNtNtB8_4iter6traits8iterator8Iterator4folduNCINvNvBO_8for_each4callcNCINvXsd_NtCsdKWIjqbzJ9K_5alloc6stringNtB27_6StringINtNtBS_7collect6ExtendcE6extendBw_E0E0ECs2J74ZzqJeQl_5types
	subq	$88, %rsp
	.seh_stackalloc 88
	.seh_endprologue
	movq	%rdx, 80(%rsp)
.Ltmp464:
	.cv_loc	191 33 387 0
	movq	(%rcx), %rax
	movq	%rax, 40(%rsp)
	movq	8(%rcx), %rax
	movq	%rax, 48(%rsp)
	movq	16(%rcx), %rax
	movq	%rax, 56(%rsp)
	movq	24(%rcx), %rax
	movq	%rax, 64(%rsp)
.Ltmp465:
	.cv_inline_site_id 192 within 191 inlined_at 33 387 0
	.cv_loc	192 33 521 0
	leaq	40(%rsp), %rcx
.Ltmp466:
	callq	_RINvXs2_NtNtCsaGRekH07FSF_4core5array4iterINtB6_8IntoItercKj3_ENtNtNtNtBa_4iter6traits8iterator8Iterator4folduNCINvNvBZ_8for_each4callcNCINvXsd_NtCsdKWIjqbzJ9K_5alloc6stringNtB2i_6StringINtNtB13_7collect6ExtendcE6extendNtNtBa_4char11ToUppercaseE0E0ECs2J74ZzqJeQl_5types
.Ltmp467:
	.cv_loc	191 33 388 0
	nop
	.seh_startepilogue
	addq	$88, %rsp
	.seh_endepilogue
	retq
.Ltmp468:
.Lfunc_end35:
	.seh_endproc

	.def	_RINvXs_NtNtCsaGRekH07FSF_4core3ops11index_rangeNtB5_10IndexRangeNtNtNtNtB9_4iter6traits8iterator8Iterator8try_folduNCINvMs6_NtNtNtB9_5array4iter10iter_innerINtB1Y_15PolymorphicIterSINtNtNtB9_3mem12maybe_uninit11MaybeUninitcEE8try_folduNCINvMNtB7_9try_traitINtB3R_17NeverShortCircuituE10wrap_mut_2ucNCINvNvB10_8for_each4callcNCINvXsd_NtCsdKWIjqbzJ9K_5alloc6stringNtB5l_6StringINtNtB14_7collect6ExtendcE6extendNtNtB9_4char11ToUppercaseE0E0E0B46_E0B46_ECs2J74ZzqJeQl_5types;
	.scl	2;
	.type	32;
	.endef
	.section	.text,"xr",one_only,_RINvXs_NtNtCsaGRekH07FSF_4core3ops11index_rangeNtB5_10IndexRangeNtNtNtNtB9_4iter6traits8iterator8Iterator8try_folduNCINvMs6_NtNtNtB9_5array4iter10iter_innerINtB1Y_15PolymorphicIterSINtNtNtB9_3mem12maybe_uninit11MaybeUninitcEE8try_folduNCINvMNtB7_9try_traitINtB3R_17NeverShortCircuituE10wrap_mut_2ucNCINvNvB10_8for_each4callcNCINvXsd_NtCsdKWIjqbzJ9K_5alloc6stringNtB5l_6StringINtNtB14_7collect6ExtendcE6extendNtNtB9_4char11ToUppercaseE0E0E0B46_E0B46_ECs2J74ZzqJeQl_5types,unique,37
	.globl	_RINvXs_NtNtCsaGRekH07FSF_4core3ops11index_rangeNtB5_10IndexRangeNtNtNtNtB9_4iter6traits8iterator8Iterator8try_folduNCINvMs6_NtNtNtB9_5array4iter10iter_innerINtB1Y_15PolymorphicIterSINtNtNtB9_3mem12maybe_uninit11MaybeUninitcEE8try_folduNCINvMNtB7_9try_traitINtB3R_17NeverShortCircuituE10wrap_mut_2ucNCINvNvB10_8for_each4callcNCINvXsd_NtCsdKWIjqbzJ9K_5alloc6stringNtB5l_6StringINtNtB14_7collect6ExtendcE6extendNtNtB9_4char11ToUppercaseE0E0E0B46_E0B46_ECs2J74ZzqJeQl_5types
	.p2align	4
_RINvXs_NtNtCsaGRekH07FSF_4core3ops11index_rangeNtB5_10IndexRangeNtNtNtNtB9_4iter6traits8iterator8Iterator8try_folduNCINvMs6_NtNtNtB9_5array4iter10iter_innerINtB1Y_15PolymorphicIterSINtNtNtB9_3mem12maybe_uninit11MaybeUninitcEE8try_folduNCINvMNtB7_9try_traitINtB3R_17NeverShortCircuituE10wrap_mut_2ucNCINvNvB10_8for_each4callcNCINvXsd_NtCsdKWIjqbzJ9K_5alloc6stringNtB5l_6StringINtNtB14_7collect6ExtendcE6extendNtNtB9_4char11ToUppercaseE0E0E0B46_E0B46_ECs2J74ZzqJeQl_5types:
.Lfunc_begin36:
	.cv_func_id 193
	.cv_file	34 "/rustc/1be6b13be73dc12e98e51b403add4c41a0b77759\\library\\core\\src\\ops\\index_range.rs" "BE7F1A663156319AA4762288C44B726338276F0BCB1C36A5CED5003D329DEB8F" 3
	.cv_loc	193 34 157 0
.seh_proc _RINvXs_NtNtCsaGRekH07FSF_4core3ops11index_rangeNtB5_10IndexRangeNtNtNtNtB9_4iter6traits8iterator8Iterator8try_folduNCINvMs6_NtNtNtB9_5array4iter10iter_innerINtB1Y_15PolymorphicIterSINtNtNtB9_3mem12maybe_uninit11MaybeUninitcEE8try_folduNCINvMNtB7_9try_traitINtB3R_17NeverShortCircuituE10wrap_mut_2ucNCINvNvB10_8for_each4callcNCINvXsd_NtCsdKWIjqbzJ9K_5alloc6stringNtB5l_6StringINtNtB14_7collect6ExtendcE6extendNtNtB9_4char11ToUppercaseE0E0E0B46_E0B46_ECs2J74ZzqJeQl_5types
	subq	$104, %rsp
	.seh_stackalloc 104
	.seh_endprologue
	movq	%rdx, 48(%rsp)
.Ltmp469:
	movq	%rcx, 56(%rsp)
	movq	%rcx, 72(%rsp)
.Ltmp470:
	.cv_inline_site_id 194 within 193 inlined_at 34 169 0
	.cv_inline_site_id 195 within 194 inlined_at 34 63 0
	.cv_loc	195 7 717 0
	movq	$1, 80(%rsp)
.Ltmp471:
	.cv_inline_site_id 196 within 193 inlined_at 34 166 0
	.cv_loc	196 34 122 0
	movq	(%rcx), %rax
	cmpq	8(%rcx), %rax
	setbe	%cl
	movb	%cl, %al
	andb	$1, %al
	movb	%al, 95(%rsp)
.Ltmp472:
	.cv_inline_site_id 197 within 196 inlined_at 34 122 0
	.cv_loc	197 13 78 0
	andb	$1, %cl
	leaq	anon.d3fe902d2fc543e5a5ebd510b0621c19.22(%rip), %rdx
.Ltmp473:
	callq	_RNvNvNtCsaGRekH07FSF_4core4hint16assert_unchecked18precondition_checkCs2J74ZzqJeQl_5types
.Ltmp474:
.LBB36_1:
	.cv_loc	193 34 167 0
	movq	56(%rsp), %rcx
	movq	(%rcx), %rax
	cmpq	8(%rcx), %rax
	jne	.LBB36_3
.Ltmp475:
	.cv_loc	193 34 172 0
	movb	$0, 71(%rsp)
	callq	_RNvXs_NtNtCsaGRekH07FSF_4core3ops9try_traitINtB4_17NeverShortCircuituENtB4_3Try11from_outputCs2J74ZzqJeQl_5types
	.cv_loc	193 34 173 0
	nop
	.seh_startepilogue
	addq	$104, %rsp
	.seh_endepilogue
	retq
.Ltmp476:
.LBB36_3:
	.cv_loc	194 34 61 0
	movq	56(%rsp), %rax
.Ltmp477:
	movq	(%rax), %rcx
	movq	%rcx, 40(%rsp)
	movq	%rcx, 96(%rsp)
.Ltmp478:
	.cv_loc	195 13 78 0
	movl	$1, %edx
	leaq	anon.d3fe902d2fc543e5a5ebd510b0621c19.23(%rip), %r8
	callq	_RNvNvMs9_NtCsaGRekH07FSF_4core3numj13unchecked_add18precondition_checkCs2J74ZzqJeQl_5types
	movq	56(%rsp), %rax
	movq	48(%rsp), %rcx
	movq	40(%rsp), %rdx
	.cv_loc	195 7 729 0
	movq	%rdx, %r8
	addq	$1, %r8
.Ltmp479:
	.cv_loc	194 34 63 0
	movq	%r8, (%rax)
.Ltmp480:
	.cv_loc	193 34 170 0
	movb	$0, 71(%rsp)
	callq	_RNCINvMs6_NtNtNtCsaGRekH07FSF_4core5array4iter10iter_innerINtB8_15PolymorphicIterSINtNtNtBe_3mem12maybe_uninit11MaybeUninitcEE8try_folduNCINvMNtNtBe_3ops9try_traitINtB2g_17NeverShortCircuituE10wrap_mut_2ucNCINvNvNtNtNtNtBe_4iter6traits8iterator8Iterator8for_each4callcNCINvXsd_NtCsdKWIjqbzJ9K_5alloc6stringNtB4r_6StringINtNtB3s_7collect6ExtendcE6extendNtNtBe_4char11ToUppercaseE0E0E0B2B_E0Cs2J74ZzqJeQl_5types
	callq	_RNvXs_NtNtCsaGRekH07FSF_4core3ops9try_traitINtB4_17NeverShortCircuituENtB4_3Try6branchCs2J74ZzqJeQl_5types
.Ltmp481:
	.cv_loc	193 34 167 0
	jmp	.LBB36_1
.Ltmp482:
.Lfunc_end36:
	.seh_endproc

	.def	_RINvXs_NtNtNtCsaGRekH07FSF_4core4iter8adapters3revINtB5_3RevNtNtNtBb_3str4iter5CharsENtNtNtB9_6traits8iterator8Iterator4folduNCINvNvB1l_8for_each4callcNCINvXsd_NtCsdKWIjqbzJ9K_5alloc6stringNtB2y_6StringINtNtB1p_7collect6ExtendcE6extendBM_E0E0ECs2J74ZzqJeQl_5types;
	.scl	2;
	.type	32;
	.endef
	.section	.text,"xr",one_only,_RINvXs_NtNtNtCsaGRekH07FSF_4core4iter8adapters3revINtB5_3RevNtNtNtBb_3str4iter5CharsENtNtNtB9_6traits8iterator8Iterator4folduNCINvNvB1l_8for_each4callcNCINvXsd_NtCsdKWIjqbzJ9K_5alloc6stringNtB2y_6StringINtNtB1p_7collect6ExtendcE6extendBM_E0E0ECs2J74ZzqJeQl_5types,unique,38
	.globl	_RINvXs_NtNtNtCsaGRekH07FSF_4core4iter8adapters3revINtB5_3RevNtNtNtBb_3str4iter5CharsENtNtNtB9_6traits8iterator8Iterator4folduNCINvNvB1l_8for_each4callcNCINvXsd_NtCsdKWIjqbzJ9K_5alloc6stringNtB2y_6StringINtNtB1p_7collect6ExtendcE6extendBM_E0E0ECs2J74ZzqJeQl_5types
	.p2align	4
_RINvXs_NtNtNtCsaGRekH07FSF_4core4iter8adapters3revINtB5_3RevNtNtNtBb_3str4iter5CharsENtNtNtB9_6traits8iterator8Iterator4folduNCINvNvB1l_8for_each4callcNCINvXsd_NtCsdKWIjqbzJ9K_5alloc6stringNtB2y_6StringINtNtB1p_7collect6ExtendcE6extendBM_E0E0ECs2J74ZzqJeQl_5types:
.Lfunc_begin37:
	.cv_func_id 198
	.cv_file	35 "/rustc/1be6b13be73dc12e98e51b403add4c41a0b77759\\library\\core\\src\\iter\\adapters\\rev.rs" "03BEDA6E5C6EEFBC1EC7C5675F0695A5DE924BBB7034E979A7B1764E58905320" 3
	.cv_loc	198 35 79 0
.seh_proc _RINvXs_NtNtNtCsaGRekH07FSF_4core4iter8adapters3revINtB5_3RevNtNtNtBb_3str4iter5CharsENtNtNtB9_6traits8iterator8Iterator4folduNCINvNvB1l_8for_each4callcNCINvXsd_NtCsdKWIjqbzJ9K_5alloc6stringNtB2y_6StringINtNtB1p_7collect6ExtendcE6extendBM_E0E0ECs2J74ZzqJeQl_5types
	subq	$72, %rsp
	.seh_stackalloc 72
	.seh_endprologue
	movq	%rcx, 40(%rsp)
	movq	%rdx, 48(%rsp)
	movq	%r8, 64(%rsp)
.Ltmp483:
	.cv_loc	198 35 83 0
	callq	_RINvYNtNtNtCsaGRekH07FSF_4core3str4iter5CharsNtNtNtNtB9_4iter6traits12double_ended19DoubleEndedIterator5rfolduNCINvNvNtNtBL_8iterator8Iterator8for_each4callcNCINvXsd_NtCsdKWIjqbzJ9K_5alloc6stringNtB2E_6StringINtNtBL_7collect6ExtendcE6extendINtNtNtBN_8adapters3rev3RevB3_EE0E0ECs2J74ZzqJeQl_5types
	.cv_loc	198 35 84 0
	nop
	.seh_startepilogue
	addq	$72, %rsp
	.seh_endepilogue
	retq
.Ltmp484:
.Lfunc_end37:
	.seh_endproc

	.def	_RINvXs_NvMNtCsdKWIjqbzJ9K_5alloc5sliceSp9to_vec_inhNtB5_10ConvertVec6to_vecNtNtBa_5alloc6GlobalECs2J74ZzqJeQl_5types;
	.scl	2;
	.type	32;
	.endef
	.section	.text,"xr",one_only,_RINvXs_NvMNtCsdKWIjqbzJ9K_5alloc5sliceSp9to_vec_inhNtB5_10ConvertVec6to_vecNtNtBa_5alloc6GlobalECs2J74ZzqJeQl_5types,unique,39
	.globl	_RINvXs_NvMNtCsdKWIjqbzJ9K_5alloc5sliceSp9to_vec_inhNtB5_10ConvertVec6to_vecNtNtBa_5alloc6GlobalECs2J74ZzqJeQl_5types
	.p2align	4
_RINvXs_NvMNtCsdKWIjqbzJ9K_5alloc5sliceSp9to_vec_inhNtB5_10ConvertVec6to_vecNtNtBa_5alloc6GlobalECs2J74ZzqJeQl_5types:
.Lfunc_begin38:
	.cv_func_id 199
	.cv_loc	199 2 446 0
.seh_proc _RINvXs_NvMNtCsdKWIjqbzJ9K_5alloc5sliceSp9to_vec_inhNtB5_10ConvertVec6to_vecNtNtBa_5alloc6GlobalECs2J74ZzqJeQl_5types
	subq	$168, %rsp
	.seh_stackalloc 168
	.seh_endprologue
	movq	%r8, 48(%rsp)
	movq	%rdx, 72(%rsp)
	movq	%rcx, %rax
	movq	48(%rsp), %rcx
	movq	%rax, 64(%rsp)
	movq	%rax, 56(%rsp)
.Ltmp485:
	movq	%rdx, 96(%rsp)
	movq	%rcx, 104(%rsp)
.Ltmp486:
	.cv_inline_site_id 200 within 199 inlined_at 2 453 0
	.cv_inline_site_id 201 within 200 inlined_at 5 1944 0
	.cv_inline_site_id 202 within 201 inlined_at 5 1276 0
	.cv_inline_site_id 203 within 202 inlined_at 6 295 0
	.cv_loc	203 6 508 0
	movq	$1, 120(%rsp)
.Ltmp487:
	.cv_loc	199 2 447 0
	movq	%rcx, 128(%rsp)
.Ltmp488:
	.cv_inline_site_id 204 within 199 inlined_at 2 447 0
	.cv_inline_site_id 205 within 204 inlined_at 5 913 0
	.cv_loc	205 6 187 0
	movl	$1, %r8d
	movq	%r8, %rdx
	callq	_RNvMs2_NtCsdKWIjqbzJ9K_5alloc7raw_vecNtB5_11RawVecInner16with_capacity_inCs2J74ZzqJeQl_5types
	movq	64(%rsp), %rcx
	movq	%rax, %r8
	movq	%rdx, %rax
	movq	72(%rsp), %rdx
.Ltmp489:
	.cv_loc	204 5 913 0
	movq	%r8, (%rcx)
	movq	%rax, 8(%rcx)
	movq	$0, 16(%rcx)
.Ltmp490:
	.cv_inline_site_id 206 within 199 inlined_at 2 452 0
	.cv_loc	206 12 726 0
	movq	%rdx, 136(%rsp)
.Ltmp491:
	.cv_inline_site_id 207 within 206 inlined_at 5 1779 0
	.cv_inline_site_id 208 within 207 inlined_at 6 282 0
	.cv_inline_site_id 209 within 208 inlined_at 6 499 0
	.cv_loc	209 6 504 0
	movq	8(%rcx), %rax
	movq	%rax, 80(%rsp)
.Ltmp492:
	.cv_loc	209 9 408 0
	movq	%rax, 144(%rsp)
.Ltmp493:
	.cv_inline_site_id 210 within 206 inlined_at 24 1252 0
	.cv_loc	210 13 78 0
	movq	48(%rsp), %r10
	movq	72(%rsp), %rcx
	movq	80(%rsp), %rdx
.Ltmp494:
	movl	$1, %r9d
	leaq	anon.d3fe902d2fc543e5a5ebd510b0621c19.3(%rip), %rax
	movq	%r9, %r8
	movq	%r10, 32(%rsp)
	movq	%rax, 40(%rsp)
	callq	_RNvNvNtCsaGRekH07FSF_4core3ptr19copy_nonoverlapping18precondition_checkCs2J74ZzqJeQl_5types
	movq	80(%rsp), %rcx
	movq	72(%rsp), %rdx
	movq	48(%rsp), %r8
	.cv_loc	210 11 547 0
	shlq	$0, %r8
	callq	memcpy
	movq	48(%rsp), %rax
.Ltmp495:
	.cv_loc	199 2 453 0
	movq	%rax, 152(%rsp)
.Ltmp496:
	.cv_loc	203 6 509 0
	jmp	.LBB38_3
.Ltmp497:
.LBB38_3:
	movq	64(%rsp), %rax
	movq	(%rax), %rax
	movq	%rax, 160(%rsp)
.Ltmp498:
	.cv_inline_site_id 211 within 203 inlined_at 6 509 0
	.cv_loc	211 8 61 0
	movq	%rax, 88(%rsp)
.Ltmp499:
	.cv_loc	200 5 1941 0
	movq	48(%rsp), %rcx
	movq	88(%rsp), %rdx
	leaq	anon.d3fe902d2fc543e5a5ebd510b0621c19.1(%rip), %r8
	callq	_RNvNvMs_NtCsdKWIjqbzJ9K_5alloc3vecINtB6_3VecppE7set_len18precondition_checkCs2J74ZzqJeQl_5types
.Ltmp500:
	.cv_loc	200 5 1947 0
	movq	56(%rsp), %rax
	movq	64(%rsp), %rcx
	movq	48(%rsp), %rdx
	movq	%rdx, 16(%rcx)
.Ltmp501:
	.cv_loc	199 2 456 0
	.seh_startepilogue
	addq	$168, %rsp
	.seh_endepilogue
	retq
.Ltmp502:
.Lfunc_end38:
	.seh_endproc

	.def	_RINvXsd_NtCsdKWIjqbzJ9K_5alloc6stringNtB6_6StringINtNtNtNtCsaGRekH07FSF_4core4iter6traits7collect6ExtendcE6extendINtNtNtBS_8adapters3rev3RevNtNtNtBU_3str4iter5CharsEECs2J74ZzqJeQl_5types;
	.scl	2;
	.type	32;
	.endef
	.section	.text,"xr",one_only,_RINvXsd_NtCsdKWIjqbzJ9K_5alloc6stringNtB6_6StringINtNtNtNtCsaGRekH07FSF_4core4iter6traits7collect6ExtendcE6extendINtNtNtBS_8adapters3rev3RevNtNtNtBU_3str4iter5CharsEECs2J74ZzqJeQl_5types,unique,40
	.globl	_RINvXsd_NtCsdKWIjqbzJ9K_5alloc6stringNtB6_6StringINtNtNtNtCsaGRekH07FSF_4core4iter6traits7collect6ExtendcE6extendINtNtNtBS_8adapters3rev3RevNtNtNtBU_3str4iter5CharsEECs2J74ZzqJeQl_5types
	.p2align	4
_RINvXsd_NtCsdKWIjqbzJ9K_5alloc6stringNtB6_6StringINtNtNtNtCsaGRekH07FSF_4core4iter6traits7collect6ExtendcE6extendINtNtNtBS_8adapters3rev3RevNtNtNtBU_3str4iter5CharsEECs2J74ZzqJeQl_5types:
.Lfunc_begin39:
	.cv_func_id 212
	.cv_loc	212 32 2452 0
.seh_proc _RINvXsd_NtCsdKWIjqbzJ9K_5alloc6stringNtB6_6StringINtNtNtNtCsaGRekH07FSF_4core4iter6traits7collect6ExtendcE6extendINtNtNtBS_8adapters3rev3RevNtNtNtBU_3str4iter5CharsEECs2J74ZzqJeQl_5types
	subq	$136, %rsp
	.seh_stackalloc 136
	.seh_endprologue
	movq	%r8, 32(%rsp)
	movq	%rdx, %rax
	movq	32(%rsp), %rdx
	movq	%rax, 40(%rsp)
	movq	%rcx, %rax
	movq	40(%rsp), %rcx
	movq	%rax, 48(%rsp)
	movq	%rax, 104(%rsp)
	movq	%rcx, 112(%rsp)
	movq	%rdx, 120(%rsp)
.Ltmp503:
	.cv_loc	212 32 2453 0
	callq	_RNvXNtNtNtCsaGRekH07FSF_4core4iter6traits7collectINtNtNtB6_8adapters3rev3RevNtNtNtB8_3str4iter5CharsENtB2_12IntoIterator9into_iterCs2J74ZzqJeQl_5types
	movq	%rax, 56(%rsp)
	movq	%rdx, 64(%rsp)
	movb	$1, 103(%rsp)
.Ltmp504:
	.cv_loc	212 32 2454 0
	leaq	72(%rsp), %rcx
	leaq	56(%rsp), %rdx
	callq	_RNvXs_NtNtNtCsaGRekH07FSF_4core4iter8adapters3revINtB4_3RevNtNtNtBa_3str4iter5CharsENtNtNtB8_6traits8iterator8Iterator9size_hintCs2J74ZzqJeQl_5types
	movq	48(%rsp), %rcx
	movq	72(%rsp), %rdx
	movq	%rdx, 128(%rsp)
.Ltmp505:
	.cv_inline_site_id 213 within 212 inlined_at 32 2455 0
	.cv_loc	213 32 1197 0
	callq	_RNvMs_NtCsdKWIjqbzJ9K_5alloc3vecINtB4_3VechE7reserveCs2J74ZzqJeQl_5types
	movq	48(%rsp), %r8
.Ltmp506:
	.cv_loc	212 32 2456 0
	movb	$0, 103(%rsp)
	movq	56(%rsp), %rcx
	movq	64(%rsp), %rdx
	callq	_RINvYINtNtNtNtCsaGRekH07FSF_4core4iter8adapters3rev3RevNtNtNtBc_3str4iter5CharsENtNtNtBa_6traits8iterator8Iterator8for_eachNCINvXsd_NtCsdKWIjqbzJ9K_5alloc6stringNtB26_6StringINtNtB1k_7collect6ExtendcE6extendB3_E0ECs2J74ZzqJeQl_5types
.Ltmp507:
	.cv_loc	212 32 2457 0
	nop
	.seh_startepilogue
	addq	$136, %rsp
	.seh_endepilogue
	retq
.Ltmp508:
.Lfunc_end39:
	.seh_endproc

	.def	_RINvXsd_NtCsdKWIjqbzJ9K_5alloc6stringNtB6_6StringINtNtNtNtCsaGRekH07FSF_4core4iter6traits7collect6ExtendcE6extendINtNtNtBS_8adapters6filter6FilterNtNtNtBU_3str4iter5CharsNCNvXNtNtCs2J74ZzqJeQl_5types6string3strReNtB2P_6StrExt13is_palindrome0EEB2R_;
	.scl	2;
	.type	32;
	.endef
	.section	.text,"xr",one_only,_RINvXsd_NtCsdKWIjqbzJ9K_5alloc6stringNtB6_6StringINtNtNtNtCsaGRekH07FSF_4core4iter6traits7collect6ExtendcE6extendINtNtNtBS_8adapters6filter6FilterNtNtNtBU_3str4iter5CharsNCNvXNtNtCs2J74ZzqJeQl_5types6string3strReNtB2P_6StrExt13is_palindrome0EEB2R_,unique,41
	.globl	_RINvXsd_NtCsdKWIjqbzJ9K_5alloc6stringNtB6_6StringINtNtNtNtCsaGRekH07FSF_4core4iter6traits7collect6ExtendcE6extendINtNtNtBS_8adapters6filter6FilterNtNtNtBU_3str4iter5CharsNCNvXNtNtCs2J74ZzqJeQl_5types6string3strReNtB2P_6StrExt13is_palindrome0EEB2R_
	.p2align	4
_RINvXsd_NtCsdKWIjqbzJ9K_5alloc6stringNtB6_6StringINtNtNtNtCsaGRekH07FSF_4core4iter6traits7collect6ExtendcE6extendINtNtNtBS_8adapters6filter6FilterNtNtNtBU_3str4iter5CharsNCNvXNtNtCs2J74ZzqJeQl_5types6string3strReNtB2P_6StrExt13is_palindrome0EEB2R_:
.Lfunc_begin40:
	.cv_func_id 214
	.cv_loc	214 32 2452 0
.seh_proc _RINvXsd_NtCsdKWIjqbzJ9K_5alloc6stringNtB6_6StringINtNtNtNtCsaGRekH07FSF_4core4iter6traits7collect6ExtendcE6extendINtNtNtBS_8adapters6filter6FilterNtNtNtBU_3str4iter5CharsNCNvXNtNtCs2J74ZzqJeQl_5types6string3strReNtB2P_6StrExt13is_palindrome0EEB2R_
	subq	$136, %rsp
	.seh_stackalloc 136
	.seh_endprologue
	movq	%r8, 32(%rsp)
	movq	%rdx, %rax
	movq	32(%rsp), %rdx
	movq	%rax, 40(%rsp)
	movq	%rcx, %rax
	movq	40(%rsp), %rcx
	movq	%rax, 48(%rsp)
	movq	%rax, 104(%rsp)
	movq	%rcx, 112(%rsp)
	movq	%rdx, 120(%rsp)
.Ltmp509:
	.cv_loc	214 32 2453 0
	callq	_RNvXNtNtNtCsaGRekH07FSF_4core4iter6traits7collectINtNtNtB6_8adapters6filter6FilterNtNtNtB8_3str4iter5CharsNCNvXNtNtCs2J74ZzqJeQl_5types6string3strReNtB1N_6StrExt13is_palindrome0ENtB2_12IntoIterator9into_iterB1P_
	movq	%rax, 56(%rsp)
	movq	%rdx, 64(%rsp)
	movb	$1, 103(%rsp)
.Ltmp510:
	.cv_loc	214 32 2454 0
	leaq	72(%rsp), %rcx
	leaq	56(%rsp), %rdx
	callq	_RNvXs1_NtNtNtCsaGRekH07FSF_4core4iter8adapters6filterINtB5_6FilterNtNtNtBb_3str4iter5CharsNCNvXNtNtCs2J74ZzqJeQl_5types6string3strReNtB1x_6StrExt13is_palindrome0ENtNtNtB9_6traits8iterator8Iterator9size_hintB1z_
	movq	48(%rsp), %rcx
	movq	72(%rsp), %rdx
	movq	%rdx, 128(%rsp)
.Ltmp511:
	.cv_inline_site_id 215 within 214 inlined_at 32 2455 0
	.cv_loc	215 32 1197 0
	callq	_RNvMs_NtCsdKWIjqbzJ9K_5alloc3vecINtB4_3VechE7reserveCs2J74ZzqJeQl_5types
	movq	48(%rsp), %r8
.Ltmp512:
	.cv_loc	214 32 2456 0
	movb	$0, 103(%rsp)
	movq	56(%rsp), %rcx
	movq	64(%rsp), %rdx
	callq	_RINvYINtNtNtNtCsaGRekH07FSF_4core4iter8adapters6filter6FilterNtNtNtBc_3str4iter5CharsNCNvXNtNtCs2J74ZzqJeQl_5types6string3strReNtB1s_6StrExt13is_palindrome0ENtNtNtBa_6traits8iterator8Iterator8for_eachNCINvXsd_NtCsdKWIjqbzJ9K_5alloc6stringNtB3l_6StringINtNtB2z_7collect6ExtendcE6extendB3_E0EB1u_
.Ltmp513:
	.cv_loc	214 32 2457 0
	nop
	.seh_startepilogue
	addq	$136, %rsp
	.seh_endepilogue
	retq
.Ltmp514:
.Lfunc_end40:
	.seh_endproc

	.def	_RINvXsd_NtCsdKWIjqbzJ9K_5alloc6stringNtB6_6StringINtNtNtNtCsaGRekH07FSF_4core4iter6traits7collect6ExtendcE6extendNtNtBU_4char11ToUppercaseECs2J74ZzqJeQl_5types;
	.scl	2;
	.type	32;
	.endef
	.section	.text,"xr",one_only,_RINvXsd_NtCsdKWIjqbzJ9K_5alloc6stringNtB6_6StringINtNtNtNtCsaGRekH07FSF_4core4iter6traits7collect6ExtendcE6extendNtNtBU_4char11ToUppercaseECs2J74ZzqJeQl_5types,unique,42
	.globl	_RINvXsd_NtCsdKWIjqbzJ9K_5alloc6stringNtB6_6StringINtNtNtNtCsaGRekH07FSF_4core4iter6traits7collect6ExtendcE6extendNtNtBU_4char11ToUppercaseECs2J74ZzqJeQl_5types
	.p2align	4
_RINvXsd_NtCsdKWIjqbzJ9K_5alloc6stringNtB6_6StringINtNtNtNtCsaGRekH07FSF_4core4iter6traits7collect6ExtendcE6extendNtNtBU_4char11ToUppercaseECs2J74ZzqJeQl_5types:
.Lfunc_begin41:
	.cv_func_id 216
	.cv_loc	216 32 2452 0
.seh_proc _RINvXsd_NtCsdKWIjqbzJ9K_5alloc6stringNtB6_6StringINtNtNtNtCsaGRekH07FSF_4core4iter6traits7collect6ExtendcE6extendNtNtBU_4char11ToUppercaseECs2J74ZzqJeQl_5types
	subq	$152, %rsp
	.seh_stackalloc 152
	.seh_endprologue
	movq	%rcx, 32(%rsp)
	movq	%rcx, 136(%rsp)
.Ltmp515:
	.cv_loc	216 32 2453 0
	leaq	40(%rsp), %rcx
	callq	_RNvXNtNtNtCsaGRekH07FSF_4core4iter6traits7collectNtNtB8_4char11ToUppercaseNtB2_12IntoIterator9into_iterCs2J74ZzqJeQl_5types
.Ltmp516:
	movb	$1, 135(%rsp)
.Ltmp517:
	.cv_loc	216 32 2454 0
	leaq	72(%rsp), %rcx
	leaq	40(%rsp), %rdx
	callq	_RNvXsE_NtCsaGRekH07FSF_4core4charNtB5_11ToUppercaseNtNtNtNtB7_4iter6traits8iterator8Iterator9size_hintCs2J74ZzqJeQl_5types
	movq	32(%rsp), %rcx
	movq	72(%rsp), %rdx
	movq	%rdx, 144(%rsp)
.Ltmp518:
	.cv_inline_site_id 217 within 216 inlined_at 32 2455 0
	.cv_loc	217 32 1197 0
	callq	_RNvMs_NtCsdKWIjqbzJ9K_5alloc3vecINtB4_3VechE7reserveCs2J74ZzqJeQl_5types
	movq	32(%rsp), %rdx
.Ltmp519:
	.cv_loc	216 32 2456 0
	movb	$0, 135(%rsp)
	movq	40(%rsp), %rax
	movq	%rax, 96(%rsp)
	movq	48(%rsp), %rax
	movq	%rax, 104(%rsp)
	movq	56(%rsp), %rax
	movq	%rax, 112(%rsp)
	movq	64(%rsp), %rax
	movq	%rax, 120(%rsp)
	leaq	96(%rsp), %rcx
	callq	_RINvYNtNtCsaGRekH07FSF_4core4char11ToUppercaseNtNtNtNtB7_4iter6traits8iterator8Iterator8for_eachNCINvXsd_NtCsdKWIjqbzJ9K_5alloc6stringNtB1F_6StringINtNtBM_7collect6ExtendcE6extendB3_E0ECs2J74ZzqJeQl_5types
.Ltmp520:
	.cv_loc	216 32 2457 0
	nop
	.seh_startepilogue
	addq	$152, %rsp
	.seh_endepilogue
	retq
.Ltmp521:
.Lfunc_end41:
	.seh_endproc

	.def	_RINvXse_NtCsdKWIjqbzJ9K_5alloc3vecINtB6_3VecReEINtNtNtNtCsaGRekH07FSF_4core4iter6traits7collect12FromIteratorBG_E9from_iterINtNtNtBQ_8adapters3rev3RevNtNtNtBS_3str4iter15SplitWhitespaceEECs2J74ZzqJeQl_5types;
	.scl	2;
	.type	32;
	.endef
	.section	.text,"xr",one_only,_RINvXse_NtCsdKWIjqbzJ9K_5alloc3vecINtB6_3VecReEINtNtNtNtCsaGRekH07FSF_4core4iter6traits7collect12FromIteratorBG_E9from_iterINtNtNtBQ_8adapters3rev3RevNtNtNtBS_3str4iter15SplitWhitespaceEECs2J74ZzqJeQl_5types,unique,43
	.globl	_RINvXse_NtCsdKWIjqbzJ9K_5alloc3vecINtB6_3VecReEINtNtNtNtCsaGRekH07FSF_4core4iter6traits7collect12FromIteratorBG_E9from_iterINtNtNtBQ_8adapters3rev3RevNtNtNtBS_3str4iter15SplitWhitespaceEECs2J74ZzqJeQl_5types
	.p2align	4
_RINvXse_NtCsdKWIjqbzJ9K_5alloc3vecINtB6_3VecReEINtNtNtNtCsaGRekH07FSF_4core4iter6traits7collect12FromIteratorBG_E9from_iterINtNtNtBQ_8adapters3rev3RevNtNtNtBS_3str4iter15SplitWhitespaceEECs2J74ZzqJeQl_5types:
.Lfunc_begin42:
	.cv_func_id 218
	.cv_loc	218 5 3718 0
.seh_proc _RINvXse_NtCsdKWIjqbzJ9K_5alloc3vecINtB6_3VecReEINtNtNtNtCsaGRekH07FSF_4core4iter6traits7collect12FromIteratorBG_E9from_iterINtNtNtBQ_8adapters3rev3RevNtNtNtBS_3str4iter15SplitWhitespaceEECs2J74ZzqJeQl_5types
	subq	$120, %rsp
	.seh_stackalloc 120
	.seh_endprologue
	movq	%rcx, 40(%rsp)
	movq	%rcx, 48(%rsp)
.Ltmp522:
	.cv_loc	218 5 3719 0
	leaq	56(%rsp), %rcx
	callq	_RNvXNtNtNtCsaGRekH07FSF_4core4iter6traits7collectINtNtNtB6_8adapters3rev3RevNtNtNtB8_3str4iter15SplitWhitespaceENtB2_12IntoIterator9into_iterCs2J74ZzqJeQl_5types
.Ltmp523:
	movq	40(%rsp), %rcx
	leaq	56(%rsp), %rdx
	callq	_RNvXNtNtCsdKWIjqbzJ9K_5alloc3vec14spec_from_iterINtB4_3VecReEINtB2_12SpecFromIterBU_INtNtNtNtCsaGRekH07FSF_4core4iter8adapters3rev3RevNtNtNtB1t_3str4iter15SplitWhitespaceEE9from_iterCs2J74ZzqJeQl_5types
	movq	48(%rsp), %rax
	.cv_loc	218 5 3720 0
	.seh_startepilogue
	addq	$120, %rsp
	.seh_endepilogue
	retq
.Ltmp524:
.Lfunc_end42:
	.seh_endproc

	.def	_RINvYINtNtNtCsaGRekH07FSF_4core3str4iter5SplitNtB8_12IsWhitespaceENtNtNtNtBa_4iter6traits12double_ended19DoubleEndedIterator5rfindQNtB8_10IsNotEmptyECs2J74ZzqJeQl_5types;
	.scl	2;
	.type	32;
	.endef
	.section	.text,"xr",one_only,_RINvYINtNtNtCsaGRekH07FSF_4core3str4iter5SplitNtB8_12IsWhitespaceENtNtNtNtBa_4iter6traits12double_ended19DoubleEndedIterator5rfindQNtB8_10IsNotEmptyECs2J74ZzqJeQl_5types,unique,44
	.globl	_RINvYINtNtNtCsaGRekH07FSF_4core3str4iter5SplitNtB8_12IsWhitespaceENtNtNtNtBa_4iter6traits12double_ended19DoubleEndedIterator5rfindQNtB8_10IsNotEmptyECs2J74ZzqJeQl_5types
	.p2align	4
_RINvYINtNtNtCsaGRekH07FSF_4core3str4iter5SplitNtB8_12IsWhitespaceENtNtNtNtBa_4iter6traits12double_ended19DoubleEndedIterator5rfindQNtB8_10IsNotEmptyECs2J74ZzqJeQl_5types:
.Lfunc_begin43:
	.cv_func_id 219
	.cv_file	36 "/rustc/1be6b13be73dc12e98e51b403add4c41a0b77759\\library\\core\\src\\iter\\traits\\double_ended.rs" "EF0E09ABA6AF7A799527719EDF9856DABD623490FD04A963A748FAA360D792E1" 3
	.cv_loc	219 36 356 0
.seh_proc _RINvYINtNtNtCsaGRekH07FSF_4core3str4iter5SplitNtB8_12IsWhitespaceENtNtNtNtBa_4iter6traits12double_ended19DoubleEndedIterator5rfindQNtB8_10IsNotEmptyECs2J74ZzqJeQl_5types
	subq	$104, %rsp
	.seh_stackalloc 104
	.seh_endprologue
	movq	%rcx, 72(%rsp)
	movq	%rdx, 80(%rsp)
.Ltmp525:
	.cv_loc	219 36 368 0
	callq	_RINvYINtNtNtCsaGRekH07FSF_4core3str4iter5SplitNtB8_12IsWhitespaceENtNtNtNtBa_4iter6traits12double_ended19DoubleEndedIterator9try_rfolduNCINvNvB12_5rfind5checkReQNtB8_10IsNotEmptyE0INtNtNtBa_3ops12control_flow11ControlFlowB2w_EECs2J74ZzqJeQl_5types
	movq	%rax, 56(%rsp)
	movq	%rdx, 64(%rsp)
.Ltmp526:
	.cv_file	37 "/rustc/1be6b13be73dc12e98e51b403add4c41a0b77759\\library\\core\\src\\ops\\control_flow.rs" "C4664DE1505EFB255789E06F3FA4D4119CE28617A666595DB48F3AB4036C9A04" 3
	.cv_inline_site_id 220 within 219 inlined_at 36 368 0
	.cv_loc	220 37 194 0
	movq	56(%rsp), %rdx
	movl	$1, %eax
	xorl	%ecx, %ecx
	cmpq	$0, %rdx
	cmoveq	%rcx, %rax
	testq	$1, %rax
	je	.LBB43_2
	.cv_loc	220 37 196 0
	movq	56(%rsp), %rcx
	movq	64(%rsp), %rax
	movq	%rcx, 88(%rsp)
	movq	%rax, 96(%rsp)
.Ltmp527:
	.cv_loc	220 37 196 0
	movq	%rcx, 40(%rsp)
	movq	%rax, 48(%rsp)
.Ltmp528:
	.cv_loc	220 37 196 0
	jmp	.LBB43_3
.LBB43_2:
	.cv_loc	220 37 195 0
	movq	$0, 40(%rsp)
.LBB43_3:
	.cv_loc	220 37 198 0
	movq	56(%rsp), %rdx
	movl	$1, %eax
	xorl	%ecx, %ecx
	cmpq	$0, %rdx
	cmoveq	%rcx, %rax
	testq	$1, %rax
	je	.LBB43_5
.Ltmp529:
.LBB43_4:
	.cv_loc	219 36 369 0
	movq	40(%rsp), %rax
	movq	48(%rsp), %rdx
	.seh_startepilogue
	addq	$104, %rsp
	.seh_endepilogue
	retq
.LBB43_5:
.Ltmp530:
	.cv_loc	220 37 198 0
	jmp	.LBB43_4
.Ltmp531:
.Lfunc_end43:
	.seh_endproc

	.def	_RINvYINtNtNtCsaGRekH07FSF_4core3str4iter5SplitNtB8_12IsWhitespaceENtNtNtNtBa_4iter6traits12double_ended19DoubleEndedIterator9try_rfolduNCINvNvB12_5rfind5checkReQNtB8_10IsNotEmptyE0INtNtNtBa_3ops12control_flow11ControlFlowB2w_EECs2J74ZzqJeQl_5types;
	.scl	2;
	.type	32;
	.endef
	.section	.text,"xr",one_only,_RINvYINtNtNtCsaGRekH07FSF_4core3str4iter5SplitNtB8_12IsWhitespaceENtNtNtNtBa_4iter6traits12double_ended19DoubleEndedIterator9try_rfolduNCINvNvB12_5rfind5checkReQNtB8_10IsNotEmptyE0INtNtNtBa_3ops12control_flow11ControlFlowB2w_EECs2J74ZzqJeQl_5types,unique,45
	.globl	_RINvYINtNtNtCsaGRekH07FSF_4core3str4iter5SplitNtB8_12IsWhitespaceENtNtNtNtBa_4iter6traits12double_ended19DoubleEndedIterator9try_rfolduNCINvNvB12_5rfind5checkReQNtB8_10IsNotEmptyE0INtNtNtBa_3ops12control_flow11ControlFlowB2w_EECs2J74ZzqJeQl_5types
	.p2align	4
_RINvYINtNtNtCsaGRekH07FSF_4core3str4iter5SplitNtB8_12IsWhitespaceENtNtNtNtBa_4iter6traits12double_ended19DoubleEndedIterator9try_rfolduNCINvNvB12_5rfind5checkReQNtB8_10IsNotEmptyE0INtNtNtBa_3ops12control_flow11ControlFlowB2w_EECs2J74ZzqJeQl_5types:
.Lfunc_begin44:
	.cv_func_id 221
	.cv_loc	221 36 230 0
.seh_proc _RINvYINtNtNtCsaGRekH07FSF_4core3str4iter5SplitNtB8_12IsWhitespaceENtNtNtNtBa_4iter6traits12double_ended19DoubleEndedIterator9try_rfolduNCINvNvB12_5rfind5checkReQNtB8_10IsNotEmptyE0INtNtNtBa_3ops12control_flow11ControlFlowB2w_EECs2J74ZzqJeQl_5types
	subq	$152, %rsp
	.seh_stackalloc 152
	.seh_endprologue
	movq	%rcx, 40(%rsp)
	movq	%rdx, 48(%rsp)
	movq	%rcx, 112(%rsp)
.Ltmp532:
	.cv_loc	221 36 236 0
	movb	$1, 111(%rsp)
.LBB44_1:
	.cv_loc	221 36 237 0
	movq	40(%rsp), %rcx
.Ltmp533:
	callq	_RNvXs14_NtNtCsaGRekH07FSF_4core3str4iterINtB6_5SplitNtB8_12IsWhitespaceENtNtNtNtBa_4iter6traits12double_ended19DoubleEndedIterator9next_backCs2J74ZzqJeQl_5types
	movq	%rax, 72(%rsp)
	movq	%rdx, 80(%rsp)
	movq	72(%rsp), %rdx
	movl	$1, %eax
	xorl	%ecx, %ecx
	cmpq	$0, %rdx
	cmoveq	%rcx, %rax
	testq	$1, %rax
	je	.LBB44_3
	movq	72(%rsp), %rdx
	movq	80(%rsp), %r8
	movq	%rdx, 120(%rsp)
	movq	%r8, 128(%rsp)
	.cv_loc	221 36 238 0
	movb	$0, 111(%rsp)
	leaq	48(%rsp), %rcx
	callq	_RNCINvNvNtNtNtNtCsaGRekH07FSF_4core4iter6traits12double_ended19DoubleEndedIterator5rfind5checkReQNtNtBe_3str10IsNotEmptyE0Cs2J74ZzqJeQl_5types
	movq	%rax, %rcx
	callq	_RNvXNtNtCsaGRekH07FSF_4core3ops12control_flowINtB2_11ControlFlowReENtNtB4_9try_trait3Try6branchCs2J74ZzqJeQl_5types
	movq	%rax, 88(%rsp)
	movq	%rdx, 96(%rsp)
	movq	88(%rsp), %rdx
	movl	$1, %eax
	xorl	%ecx, %ecx
	cmpq	$0, %rdx
	cmoveq	%rcx, %rax
	testq	$1, %rax
	jne	.LBB44_4
	jmp	.LBB44_5
.Ltmp534:
.LBB44_3:
	.cv_loc	221 36 240 0
	movb	$0, 111(%rsp)
	callq	_RNvXNtNtCsaGRekH07FSF_4core3ops12control_flowINtB2_11ControlFlowReENtNtB4_9try_trait3Try11from_outputCs2J74ZzqJeQl_5types
	movq	%rax, 56(%rsp)
	movq	%rdx, 64(%rsp)
.Ltmp535:
	.cv_loc	221 36 241 0
	jmp	.LBB44_6
.LBB44_4:
.Ltmp536:
	.cv_loc	221 36 238 0
	movq	88(%rsp), %rcx
	movq	96(%rsp), %rdx
	movq	%rcx, 136(%rsp)
	movq	%rdx, 144(%rsp)
.Ltmp537:
	.cv_loc	221 36 238 0
	callq	_RNvXs_NtNtCsaGRekH07FSF_4core3ops12control_flowINtB4_11ControlFlowReEINtNtB6_9try_trait12FromResidualIBK_B12_NtNtB8_7convert10InfallibleEE13from_residualCs2J74ZzqJeQl_5types
	movq	%rax, 56(%rsp)
	movq	%rdx, 64(%rsp)
.Ltmp538:
	.cv_loc	221 36 241 0
	jmp	.LBB44_6
.LBB44_5:
.Ltmp539:
	.cv_loc	221 36 238 0
	movb	$1, 111(%rsp)
.Ltmp540:
	.cv_loc	221 36 237 0
	jmp	.LBB44_1
.Ltmp541:
.LBB44_6:
	.cv_loc	221 36 241 0
	movq	56(%rsp), %rax
	movq	64(%rsp), %rdx
	.seh_startepilogue
	addq	$152, %rsp
	.seh_endepilogue
	retq
.Ltmp542:
.Lfunc_end44:
	.seh_endproc

	.def	_RINvYINtNtNtCsaGRekH07FSF_4core5slice4iter4IterReENtNtNtNtBa_4iter6traits8iterator8Iterator8try_foldjNCINvNtNtBS_8adapters3map12map_try_foldRBJ_jjINtNtBa_6option6OptionjENCNCINvNtCsdKWIjqbzJ9K_5alloc3str17join_generic_copyehBJ_E00NvMs9_NtBa_3numj11checked_addE0B2k_ECs2J74ZzqJeQl_5types;
	.scl	2;
	.type	32;
	.endef
	.section	.text,"xr",one_only,_RINvYINtNtNtCsaGRekH07FSF_4core5slice4iter4IterReENtNtNtNtBa_4iter6traits8iterator8Iterator8try_foldjNCINvNtNtBS_8adapters3map12map_try_foldRBJ_jjINtNtBa_6option6OptionjENCNCINvNtCsdKWIjqbzJ9K_5alloc3str17join_generic_copyehBJ_E00NvMs9_NtBa_3numj11checked_addE0B2k_ECs2J74ZzqJeQl_5types,unique,46
	.globl	_RINvYINtNtNtCsaGRekH07FSF_4core5slice4iter4IterReENtNtNtNtBa_4iter6traits8iterator8Iterator8try_foldjNCINvNtNtBS_8adapters3map12map_try_foldRBJ_jjINtNtBa_6option6OptionjENCNCINvNtCsdKWIjqbzJ9K_5alloc3str17join_generic_copyehBJ_E00NvMs9_NtBa_3numj11checked_addE0B2k_ECs2J74ZzqJeQl_5types
	.p2align	4
_RINvYINtNtNtCsaGRekH07FSF_4core5slice4iter4IterReENtNtNtNtBa_4iter6traits8iterator8Iterator8try_foldjNCINvNtNtBS_8adapters3map12map_try_foldRBJ_jjINtNtBa_6option6OptionjENCNCINvNtCsdKWIjqbzJ9K_5alloc3str17join_generic_copyehBJ_E00NvMs9_NtBa_3numj11checked_addE0B2k_ECs2J74ZzqJeQl_5types:
.Lfunc_begin45:
	.cv_func_id 222
	.cv_loc	222 21 2419 0
.seh_proc _RINvYINtNtNtCsaGRekH07FSF_4core5slice4iter4IterReENtNtNtNtBa_4iter6traits8iterator8Iterator8try_foldjNCINvNtNtBS_8adapters3map12map_try_foldRBJ_jjINtNtBa_6option6OptionjENCNCINvNtCsdKWIjqbzJ9K_5alloc3str17join_generic_copyehBJ_E00NvMs9_NtBa_3numj11checked_addE0B2k_ECs2J74ZzqJeQl_5types
	subq	$136, %rsp
	.seh_stackalloc 136
	.seh_endprologue
	movq	%rcx, 32(%rsp)
	movq	%r8, 40(%rsp)
	movq	%rcx, 104(%rsp)
	movq	%rdx, 112(%rsp)
.Ltmp543:
	.cv_loc	222 21 2425 0
	movb	$1, 103(%rsp)
	movq	%rdx, 64(%rsp)
.LBB45_1:
	.cv_loc	222 21 2426 0
	movq	32(%rsp), %rcx
.Ltmp544:
	callq	_RNvXs2E_NtNtCsaGRekH07FSF_4core5slice4iterINtB6_4IterReENtNtNtNtBa_4iter6traits8iterator8Iterator4nextCs2J74ZzqJeQl_5types
	movq	%rax, 72(%rsp)
	movq	72(%rsp), %rdx
	movl	$1, %eax
	xorl	%ecx, %ecx
	cmpq	$0, %rdx
	cmoveq	%rcx, %rax
	testq	$1, %rax
	je	.LBB45_3
	movq	72(%rsp), %r8
	movq	%r8, 120(%rsp)
	.cv_loc	222 21 2427 0
	movb	$0, 103(%rsp)
	movq	64(%rsp), %rdx
	leaq	40(%rsp), %rcx
	callq	_RNCINvNtNtNtCsaGRekH07FSF_4core4iter8adapters3map12map_try_foldRRejjINtNtBa_6option6OptionjENCNCINvNtCsdKWIjqbzJ9K_5alloc3str17join_generic_copyehB10_E00NvMs9_NtBa_3numj11checked_addE0Cs2J74ZzqJeQl_5types
	movq	%rax, %rcx
	callq	_RNvXsD_NtCsaGRekH07FSF_4core6optionINtB5_6OptionjENtNtNtB7_3ops9try_trait3Try6branchCs2J74ZzqJeQl_5types
	movq	%rax, 80(%rsp)
	movq	%rdx, 88(%rsp)
	testq	$1, 80(%rsp)
	jne	.LBB45_4
	jmp	.LBB45_5
.Ltmp545:
.LBB45_3:
	.cv_loc	222 21 2429 0
	movb	$0, 103(%rsp)
	movq	64(%rsp), %rcx
	callq	_RNvXsD_NtCsaGRekH07FSF_4core6optionINtB5_6OptionjENtNtNtB7_3ops9try_trait3Try11from_outputCs2J74ZzqJeQl_5types
	movq	%rax, 48(%rsp)
	movq	%rdx, 56(%rsp)
.Ltmp546:
	.cv_loc	222 21 2430 0
	jmp	.LBB45_6
.LBB45_4:
.Ltmp547:
	.cv_loc	222 21 2427 0
	callq	_RNvXsE_NtCsaGRekH07FSF_4core6optionINtB5_6OptionjEINtNtNtB7_3ops9try_trait12FromResidualIBy_NtNtB7_7convert10InfallibleEE13from_residualCs2J74ZzqJeQl_5types
	movq	%rax, 48(%rsp)
	movq	%rdx, 56(%rsp)
.Ltmp548:
	.cv_loc	222 21 2430 0
	jmp	.LBB45_6
.LBB45_5:
.Ltmp549:
	.cv_loc	222 21 2427 0
	movq	88(%rsp), %rax
	movq	%rax, 128(%rsp)
	movb	$1, 103(%rsp)
	movq	%rax, 64(%rsp)
.Ltmp550:
	.cv_loc	222 21 2426 0
	jmp	.LBB45_1
.Ltmp551:
.LBB45_6:
	.cv_loc	222 21 2430 0
	movq	48(%rsp), %rax
	movq	56(%rsp), %rdx
	.seh_startepilogue
	addq	$136, %rsp
	.seh_endepilogue
	retq
.Ltmp552:
.Lfunc_end45:
	.seh_endproc

	.def	_RINvYINtNtNtNtCsaGRekH07FSF_4core4iter8adapters3rev3RevNtNtNtBc_3str4iter15SplitWhitespaceENtNtNtBa_6traits8iterator8Iterator7collectINtNtCsdKWIjqbzJ9K_5alloc3vec3VecReEECs2J74ZzqJeQl_5types;
	.scl	2;
	.type	32;
	.endef
	.section	.text,"xr",one_only,_RINvYINtNtNtNtCsaGRekH07FSF_4core4iter8adapters3rev3RevNtNtNtBc_3str4iter15SplitWhitespaceENtNtNtBa_6traits8iterator8Iterator7collectINtNtCsdKWIjqbzJ9K_5alloc3vec3VecReEECs2J74ZzqJeQl_5types,unique,47
	.globl	_RINvYINtNtNtNtCsaGRekH07FSF_4core4iter8adapters3rev3RevNtNtNtBc_3str4iter15SplitWhitespaceENtNtNtBa_6traits8iterator8Iterator7collectINtNtCsdKWIjqbzJ9K_5alloc3vec3VecReEECs2J74ZzqJeQl_5types
	.p2align	4
_RINvYINtNtNtNtCsaGRekH07FSF_4core4iter8adapters3rev3RevNtNtNtBc_3str4iter15SplitWhitespaceENtNtNtBa_6traits8iterator8Iterator7collectINtNtCsdKWIjqbzJ9K_5alloc3vec3VecReEECs2J74ZzqJeQl_5types:
.Lfunc_begin46:
	.cv_func_id 223
	.cv_loc	223 21 2015 0
.seh_proc _RINvYINtNtNtNtCsaGRekH07FSF_4core4iter8adapters3rev3RevNtNtNtBc_3str4iter15SplitWhitespaceENtNtNtBa_6traits8iterator8Iterator7collectINtNtCsdKWIjqbzJ9K_5alloc3vec3VecReEECs2J74ZzqJeQl_5types
	subq	$40, %rsp
	.seh_stackalloc 40
	.seh_endprologue
	movq	%rcx, %rax
	movq	%rax, 32(%rsp)
.Ltmp553:
	.cv_loc	223 21 2028 0
	callq	_RINvXse_NtCsdKWIjqbzJ9K_5alloc3vecINtB6_3VecReEINtNtNtNtCsaGRekH07FSF_4core4iter6traits7collect12FromIteratorBG_E9from_iterINtNtNtBQ_8adapters3rev3RevNtNtNtBS_3str4iter15SplitWhitespaceEECs2J74ZzqJeQl_5types
.Ltmp554:
	movq	32(%rsp), %rax
	.cv_loc	223 21 2029 0
	.seh_startepilogue
	addq	$40, %rsp
	.seh_endepilogue
	retq
.Ltmp555:
.Lfunc_end46:
	.seh_endproc

	.def	_RINvYINtNtNtNtCsaGRekH07FSF_4core4iter8adapters3rev3RevNtNtNtBc_3str4iter5CharsENtNtNtBa_6traits8iterator8Iterator7collectNtNtCsdKWIjqbzJ9K_5alloc6string6StringECs2J74ZzqJeQl_5types;
	.scl	2;
	.type	32;
	.endef
	.section	.text,"xr",one_only,_RINvYINtNtNtNtCsaGRekH07FSF_4core4iter8adapters3rev3RevNtNtNtBc_3str4iter5CharsENtNtNtBa_6traits8iterator8Iterator7collectNtNtCsdKWIjqbzJ9K_5alloc6string6StringECs2J74ZzqJeQl_5types,unique,48
	.globl	_RINvYINtNtNtNtCsaGRekH07FSF_4core4iter8adapters3rev3RevNtNtNtBc_3str4iter5CharsENtNtNtBa_6traits8iterator8Iterator7collectNtNtCsdKWIjqbzJ9K_5alloc6string6StringECs2J74ZzqJeQl_5types
	.p2align	4
_RINvYINtNtNtNtCsaGRekH07FSF_4core4iter8adapters3rev3RevNtNtNtBc_3str4iter5CharsENtNtNtBa_6traits8iterator8Iterator7collectNtNtCsdKWIjqbzJ9K_5alloc6string6StringECs2J74ZzqJeQl_5types:
.Lfunc_begin47:
	.cv_func_id 224
	.cv_loc	224 21 2015 0
.seh_proc _RINvYINtNtNtNtCsaGRekH07FSF_4core4iter8adapters3rev3RevNtNtNtBc_3str4iter5CharsENtNtNtBa_6traits8iterator8Iterator7collectNtNtCsdKWIjqbzJ9K_5alloc6string6StringECs2J74ZzqJeQl_5types
	subq	$56, %rsp
	.seh_stackalloc 56
	.seh_endprologue
	movq	%rcx, %rax
	movq	%rax, 32(%rsp)
	movq	%rdx, 40(%rsp)
	movq	%r8, 48(%rsp)
.Ltmp556:
	.cv_loc	224 21 2028 0
	callq	_RINvXs5_NtCsdKWIjqbzJ9K_5alloc6stringNtB6_6StringINtNtNtNtCsaGRekH07FSF_4core4iter6traits7collect12FromIteratorcE9from_iterINtNtNtBS_8adapters3rev3RevNtNtNtBU_3str4iter5CharsEECs2J74ZzqJeQl_5types
	movq	32(%rsp), %rax
	.cv_loc	224 21 2029 0
	.seh_startepilogue
	addq	$56, %rsp
	.seh_endepilogue
	retq
.Ltmp557:
.Lfunc_end47:
	.seh_endproc

	.def	_RINvYINtNtNtNtCsaGRekH07FSF_4core4iter8adapters3rev3RevNtNtNtBc_3str4iter5CharsENtNtNtBa_6traits8iterator8Iterator8for_eachNCINvXsd_NtCsdKWIjqbzJ9K_5alloc6stringNtB26_6StringINtNtB1k_7collect6ExtendcE6extendB3_E0ECs2J74ZzqJeQl_5types;
	.scl	2;
	.type	32;
	.endef
	.section	.text,"xr",one_only,_RINvYINtNtNtNtCsaGRekH07FSF_4core4iter8adapters3rev3RevNtNtNtBc_3str4iter5CharsENtNtNtBa_6traits8iterator8Iterator8for_eachNCINvXsd_NtCsdKWIjqbzJ9K_5alloc6stringNtB26_6StringINtNtB1k_7collect6ExtendcE6extendB3_E0ECs2J74ZzqJeQl_5types,unique,49
	.globl	_RINvYINtNtNtNtCsaGRekH07FSF_4core4iter8adapters3rev3RevNtNtNtBc_3str4iter5CharsENtNtNtBa_6traits8iterator8Iterator8for_eachNCINvXsd_NtCsdKWIjqbzJ9K_5alloc6stringNtB26_6StringINtNtB1k_7collect6ExtendcE6extendB3_E0ECs2J74ZzqJeQl_5types
	.p2align	4
_RINvYINtNtNtNtCsaGRekH07FSF_4core4iter8adapters3rev3RevNtNtNtBc_3str4iter5CharsENtNtNtBa_6traits8iterator8Iterator8for_eachNCINvXsd_NtCsdKWIjqbzJ9K_5alloc6stringNtB26_6StringINtNtB1k_7collect6ExtendcE6extendB3_E0ECs2J74ZzqJeQl_5types:
.Lfunc_begin48:
	.cv_func_id 225
	.cv_loc	225 21 818 0
.seh_proc _RINvYINtNtNtNtCsaGRekH07FSF_4core4iter8adapters3rev3RevNtNtNtBc_3str4iter5CharsENtNtNtBa_6traits8iterator8Iterator8for_eachNCINvXsd_NtCsdKWIjqbzJ9K_5alloc6stringNtB26_6StringINtNtB1k_7collect6ExtendcE6extendB3_E0ECs2J74ZzqJeQl_5types
	subq	$56, %rsp
	.seh_stackalloc 56
	.seh_endprologue
	movq	%rcx, 32(%rsp)
	movq	%rdx, 40(%rsp)
	movq	%r8, 48(%rsp)
.Ltmp558:
	.cv_loc	225 21 828 0
	callq	_RINvXs_NtNtNtCsaGRekH07FSF_4core4iter8adapters3revINtB5_3RevNtNtNtBb_3str4iter5CharsENtNtNtB9_6traits8iterator8Iterator4folduNCINvNvB1l_8for_each4callcNCINvXsd_NtCsdKWIjqbzJ9K_5alloc6stringNtB2y_6StringINtNtB1p_7collect6ExtendcE6extendBM_E0E0ECs2J74ZzqJeQl_5types
	.cv_loc	225 21 829 0
	nop
	.seh_startepilogue
	addq	$56, %rsp
	.seh_endepilogue
	retq
.Ltmp559:
.Lfunc_end48:
	.seh_endproc

	.def	_RINvYINtNtNtNtCsaGRekH07FSF_4core4iter8adapters6filter6FilterNtNtNtBc_3str4iter5CharsNCNvXNtNtCs2J74ZzqJeQl_5types6string3strReNtB1s_6StrExt13is_palindrome0ENtNtNtBa_6traits8iterator8Iterator7collectNtNtCsdKWIjqbzJ9K_5alloc6string6StringEB1u_;
	.scl	2;
	.type	32;
	.endef
	.section	.text,"xr",one_only,_RINvYINtNtNtNtCsaGRekH07FSF_4core4iter8adapters6filter6FilterNtNtNtBc_3str4iter5CharsNCNvXNtNtCs2J74ZzqJeQl_5types6string3strReNtB1s_6StrExt13is_palindrome0ENtNtNtBa_6traits8iterator8Iterator7collectNtNtCsdKWIjqbzJ9K_5alloc6string6StringEB1u_,unique,50
	.globl	_RINvYINtNtNtNtCsaGRekH07FSF_4core4iter8adapters6filter6FilterNtNtNtBc_3str4iter5CharsNCNvXNtNtCs2J74ZzqJeQl_5types6string3strReNtB1s_6StrExt13is_palindrome0ENtNtNtBa_6traits8iterator8Iterator7collectNtNtCsdKWIjqbzJ9K_5alloc6string6StringEB1u_
	.p2align	4
_RINvYINtNtNtNtCsaGRekH07FSF_4core4iter8adapters6filter6FilterNtNtNtBc_3str4iter5CharsNCNvXNtNtCs2J74ZzqJeQl_5types6string3strReNtB1s_6StrExt13is_palindrome0ENtNtNtBa_6traits8iterator8Iterator7collectNtNtCsdKWIjqbzJ9K_5alloc6string6StringEB1u_:
.Lfunc_begin49:
	.cv_func_id 226
	.cv_loc	226 21 2015 0
.seh_proc _RINvYINtNtNtNtCsaGRekH07FSF_4core4iter8adapters6filter6FilterNtNtNtBc_3str4iter5CharsNCNvXNtNtCs2J74ZzqJeQl_5types6string3strReNtB1s_6StrExt13is_palindrome0ENtNtNtBa_6traits8iterator8Iterator7collectNtNtCsdKWIjqbzJ9K_5alloc6string6StringEB1u_
	subq	$56, %rsp
	.seh_stackalloc 56
	.seh_endprologue
	movq	%rcx, %rax
	movq	%rax, 32(%rsp)
	movq	%rdx, 40(%rsp)
	movq	%r8, 48(%rsp)
.Ltmp560:
	.cv_loc	226 21 2028 0
	callq	_RINvXs5_NtCsdKWIjqbzJ9K_5alloc6stringNtB6_6StringINtNtNtNtCsaGRekH07FSF_4core4iter6traits7collect12FromIteratorcE9from_iterINtNtNtBS_8adapters6filter6FilterNtNtNtBU_3str4iter5CharsNCNvXNtNtCs2J74ZzqJeQl_5types6string3strReNtB2Z_6StrExt13is_palindrome0EEB31_
	movq	32(%rsp), %rax
	.cv_loc	226 21 2029 0
	.seh_startepilogue
	addq	$56, %rsp
	.seh_endepilogue
	retq
.Ltmp561:
.Lfunc_end49:
	.seh_endproc

	.def	_RINvYINtNtNtNtCsaGRekH07FSF_4core4iter8adapters6filter6FilterNtNtNtBc_3str4iter5CharsNCNvXNtNtCs2J74ZzqJeQl_5types6string3strReNtB1s_6StrExt13is_palindrome0ENtNtNtBa_6traits8iterator8Iterator8for_eachNCINvXsd_NtCsdKWIjqbzJ9K_5alloc6stringNtB3l_6StringINtNtB2z_7collect6ExtendcE6extendB3_E0EB1u_;
	.scl	2;
	.type	32;
	.endef
	.section	.text,"xr",one_only,_RINvYINtNtNtNtCsaGRekH07FSF_4core4iter8adapters6filter6FilterNtNtNtBc_3str4iter5CharsNCNvXNtNtCs2J74ZzqJeQl_5types6string3strReNtB1s_6StrExt13is_palindrome0ENtNtNtBa_6traits8iterator8Iterator8for_eachNCINvXsd_NtCsdKWIjqbzJ9K_5alloc6stringNtB3l_6StringINtNtB2z_7collect6ExtendcE6extendB3_E0EB1u_,unique,51
	.globl	_RINvYINtNtNtNtCsaGRekH07FSF_4core4iter8adapters6filter6FilterNtNtNtBc_3str4iter5CharsNCNvXNtNtCs2J74ZzqJeQl_5types6string3strReNtB1s_6StrExt13is_palindrome0ENtNtNtBa_6traits8iterator8Iterator8for_eachNCINvXsd_NtCsdKWIjqbzJ9K_5alloc6stringNtB3l_6StringINtNtB2z_7collect6ExtendcE6extendB3_E0EB1u_
	.p2align	4
_RINvYINtNtNtNtCsaGRekH07FSF_4core4iter8adapters6filter6FilterNtNtNtBc_3str4iter5CharsNCNvXNtNtCs2J74ZzqJeQl_5types6string3strReNtB1s_6StrExt13is_palindrome0ENtNtNtBa_6traits8iterator8Iterator8for_eachNCINvXsd_NtCsdKWIjqbzJ9K_5alloc6stringNtB3l_6StringINtNtB2z_7collect6ExtendcE6extendB3_E0EB1u_:
.Lfunc_begin50:
	.cv_func_id 227
	.cv_loc	227 21 818 0
.seh_proc _RINvYINtNtNtNtCsaGRekH07FSF_4core4iter8adapters6filter6FilterNtNtNtBc_3str4iter5CharsNCNvXNtNtCs2J74ZzqJeQl_5types6string3strReNtB1s_6StrExt13is_palindrome0ENtNtNtBa_6traits8iterator8Iterator8for_eachNCINvXsd_NtCsdKWIjqbzJ9K_5alloc6stringNtB3l_6StringINtNtB2z_7collect6ExtendcE6extendB3_E0EB1u_
	subq	$56, %rsp
	.seh_stackalloc 56
	.seh_endprologue
	movq	%rcx, 32(%rsp)
	movq	%rdx, 40(%rsp)
	movq	%r8, 48(%rsp)
.Ltmp562:
	.cv_loc	227 21 828 0
	callq	_RINvXs1_NtNtNtCsaGRekH07FSF_4core4iter8adapters6filterINtB6_6FilterNtNtNtBc_3str4iter5CharsNCNvXNtNtCs2J74ZzqJeQl_5types6string3strReNtB1y_6StrExt13is_palindrome0ENtNtNtBa_6traits8iterator8Iterator4folduNCINvNvB2B_8for_each4callcNCINvXsd_NtCsdKWIjqbzJ9K_5alloc6stringNtB3O_6StringINtNtB2F_7collect6ExtendcE6extendBQ_E0E0EB1A_
	.cv_loc	227 21 829 0
	nop
	.seh_startepilogue
	addq	$56, %rsp
	.seh_endepilogue
	retq
.Ltmp563:
.Lfunc_end50:
	.seh_endproc

	.def	_RINvYNtNtCsaGRekH07FSF_4core4char11ToUppercaseNtNtNtNtB7_4iter6traits8iterator8Iterator7collectNtNtCsdKWIjqbzJ9K_5alloc6string6StringECs2J74ZzqJeQl_5types;
	.scl	2;
	.type	32;
	.endef
	.section	.text,"xr",one_only,_RINvYNtNtCsaGRekH07FSF_4core4char11ToUppercaseNtNtNtNtB7_4iter6traits8iterator8Iterator7collectNtNtCsdKWIjqbzJ9K_5alloc6string6StringECs2J74ZzqJeQl_5types,unique,52
	.globl	_RINvYNtNtCsaGRekH07FSF_4core4char11ToUppercaseNtNtNtNtB7_4iter6traits8iterator8Iterator7collectNtNtCsdKWIjqbzJ9K_5alloc6string6StringECs2J74ZzqJeQl_5types
	.p2align	4
_RINvYNtNtCsaGRekH07FSF_4core4char11ToUppercaseNtNtNtNtB7_4iter6traits8iterator8Iterator7collectNtNtCsdKWIjqbzJ9K_5alloc6string6StringECs2J74ZzqJeQl_5types:
.Lfunc_begin51:
	.cv_func_id 228
	.cv_loc	228 21 2015 0
.seh_proc _RINvYNtNtCsaGRekH07FSF_4core4char11ToUppercaseNtNtNtNtB7_4iter6traits8iterator8Iterator7collectNtNtCsdKWIjqbzJ9K_5alloc6string6StringECs2J74ZzqJeQl_5types
	subq	$40, %rsp
	.seh_stackalloc 40
	.seh_endprologue
	movq	%rcx, %rax
	movq	%rax, 32(%rsp)
.Ltmp564:
	.cv_loc	228 21 2028 0
	callq	_RINvXs5_NtCsdKWIjqbzJ9K_5alloc6stringNtB6_6StringINtNtNtNtCsaGRekH07FSF_4core4iter6traits7collect12FromIteratorcE9from_iterNtNtBU_4char11ToUppercaseECs2J74ZzqJeQl_5types
.Ltmp565:
	movq	32(%rsp), %rax
	.cv_loc	228 21 2029 0
	.seh_startepilogue
	addq	$40, %rsp
	.seh_endepilogue
	retq
.Ltmp566:
.Lfunc_end51:
	.seh_endproc

	.def	_RINvYNtNtCsaGRekH07FSF_4core4char11ToUppercaseNtNtNtNtB7_4iter6traits8iterator8Iterator8for_eachNCINvXsd_NtCsdKWIjqbzJ9K_5alloc6stringNtB1F_6StringINtNtBM_7collect6ExtendcE6extendB3_E0ECs2J74ZzqJeQl_5types;
	.scl	2;
	.type	32;
	.endef
	.section	.text,"xr",one_only,_RINvYNtNtCsaGRekH07FSF_4core4char11ToUppercaseNtNtNtNtB7_4iter6traits8iterator8Iterator8for_eachNCINvXsd_NtCsdKWIjqbzJ9K_5alloc6stringNtB1F_6StringINtNtBM_7collect6ExtendcE6extendB3_E0ECs2J74ZzqJeQl_5types,unique,53
	.globl	_RINvYNtNtCsaGRekH07FSF_4core4char11ToUppercaseNtNtNtNtB7_4iter6traits8iterator8Iterator8for_eachNCINvXsd_NtCsdKWIjqbzJ9K_5alloc6stringNtB1F_6StringINtNtBM_7collect6ExtendcE6extendB3_E0ECs2J74ZzqJeQl_5types
	.p2align	4
_RINvYNtNtCsaGRekH07FSF_4core4char11ToUppercaseNtNtNtNtB7_4iter6traits8iterator8Iterator8for_eachNCINvXsd_NtCsdKWIjqbzJ9K_5alloc6stringNtB1F_6StringINtNtBM_7collect6ExtendcE6extendB3_E0ECs2J74ZzqJeQl_5types:
.Lfunc_begin52:
	.cv_func_id 229
	.cv_loc	229 21 818 0
.seh_proc _RINvYNtNtCsaGRekH07FSF_4core4char11ToUppercaseNtNtNtNtB7_4iter6traits8iterator8Iterator8for_eachNCINvXsd_NtCsdKWIjqbzJ9K_5alloc6stringNtB1F_6StringINtNtBM_7collect6ExtendcE6extendB3_E0ECs2J74ZzqJeQl_5types
	subq	$40, %rsp
	.seh_stackalloc 40
	.seh_endprologue
	movq	%rdx, 32(%rsp)
.Ltmp567:
	.cv_loc	229 21 828 0
	callq	_RINvXsE_NtCsaGRekH07FSF_4core4charNtB6_11ToUppercaseNtNtNtNtB8_4iter6traits8iterator8Iterator4folduNCINvNvBO_8for_each4callcNCINvXsd_NtCsdKWIjqbzJ9K_5alloc6stringNtB27_6StringINtNtBS_7collect6ExtendcE6extendBw_E0E0ECs2J74ZzqJeQl_5types
.Ltmp568:
	.cv_loc	229 21 829 0
	nop
	.seh_startepilogue
	addq	$40, %rsp
	.seh_endepilogue
	retq
.Ltmp569:
.Lfunc_end52:
	.seh_endproc

	.def	_RINvYNtNtNtCsaGRekH07FSF_4core3str4iter5CharsNtNtNtNtB9_4iter6traits12double_ended19DoubleEndedIterator5rfolduNCINvNvNtNtBL_8iterator8Iterator8for_each4callcNCINvXsd_NtCsdKWIjqbzJ9K_5alloc6stringNtB2E_6StringINtNtBL_7collect6ExtendcE6extendINtNtNtBN_8adapters3rev3RevB3_EE0E0ECs2J74ZzqJeQl_5types;
	.scl	2;
	.type	32;
	.endef
	.section	.text,"xr",one_only,_RINvYNtNtNtCsaGRekH07FSF_4core3str4iter5CharsNtNtNtNtB9_4iter6traits12double_ended19DoubleEndedIterator5rfolduNCINvNvNtNtBL_8iterator8Iterator8for_each4callcNCINvXsd_NtCsdKWIjqbzJ9K_5alloc6stringNtB2E_6StringINtNtBL_7collect6ExtendcE6extendINtNtNtBN_8adapters3rev3RevB3_EE0E0ECs2J74ZzqJeQl_5types,unique,54
	.globl	_RINvYNtNtNtCsaGRekH07FSF_4core3str4iter5CharsNtNtNtNtB9_4iter6traits12double_ended19DoubleEndedIterator5rfolduNCINvNvNtNtBL_8iterator8Iterator8for_each4callcNCINvXsd_NtCsdKWIjqbzJ9K_5alloc6stringNtB2E_6StringINtNtBL_7collect6ExtendcE6extendINtNtNtBN_8adapters3rev3RevB3_EE0E0ECs2J74ZzqJeQl_5types
	.p2align	4
_RINvYNtNtNtCsaGRekH07FSF_4core3str4iter5CharsNtNtNtNtB9_4iter6traits12double_ended19DoubleEndedIterator5rfolduNCINvNvNtNtBL_8iterator8Iterator8for_each4callcNCINvXsd_NtCsdKWIjqbzJ9K_5alloc6stringNtB2E_6StringINtNtBL_7collect6ExtendcE6extendINtNtNtBN_8adapters3rev3RevB3_EE0E0ECs2J74ZzqJeQl_5types:
.Lfunc_begin53:
	.cv_func_id 230
	.cv_loc	230 36 301 0
.seh_proc _RINvYNtNtNtCsaGRekH07FSF_4core3str4iter5CharsNtNtNtNtB9_4iter6traits12double_ended19DoubleEndedIterator5rfolduNCINvNvNtNtBL_8iterator8Iterator8for_each4callcNCINvXsd_NtCsdKWIjqbzJ9K_5alloc6stringNtB2E_6StringINtNtBL_7collect6ExtendcE6extendINtNtNtBN_8adapters3rev3RevB3_EE0E0ECs2J74ZzqJeQl_5types
	subq	$72, %rsp
	.seh_stackalloc 72
	.seh_endprologue
	movq	%rcx, 32(%rsp)
	movq	%rdx, 40(%rsp)
	movq	%r8, 48(%rsp)
.Ltmp570:
	.cv_loc	230 36 306 0
	movb	$1, 67(%rsp)
.LBB53_1:
.Ltmp571:
	.cv_loc	230 36 307 0
	leaq	32(%rsp), %rcx
	callq	_RNvXs0_NtNtCsaGRekH07FSF_4core3str4iterNtB5_5CharsNtNtNtNtB9_4iter6traits12double_ended19DoubleEndedIterator9next_backCs2J74ZzqJeQl_5types
	movl	%eax, 60(%rsp)
	movl	$1, %eax
	xorl	%ecx, %ecx
	cmpl	$1114112, 60(%rsp)
	cmoveq	%rcx, %rax
	testq	$1, %rax
	je	.LBB53_3
	movl	60(%rsp), %edx
	movl	%edx, 68(%rsp)
	.cv_loc	230 36 308 0
	movb	$0, 67(%rsp)
	leaq	48(%rsp), %rcx
	callq	_RNCINvNvNtNtNtNtCsaGRekH07FSF_4core4iter6traits8iterator8Iterator8for_each4callcNCINvXsd_NtCsdKWIjqbzJ9K_5alloc6stringNtB1p_6StringINtNtBa_7collect6ExtendcE6extendINtNtNtBc_8adapters3rev3RevNtNtNtBe_3str4iter5CharsEE0E0Cs2J74ZzqJeQl_5types
	movb	$1, 67(%rsp)
.Ltmp572:
	.cv_loc	230 36 307 0
	jmp	.LBB53_1
.Ltmp573:
.LBB53_3:
	.cv_loc	230 36 311 0
	.seh_startepilogue
	addq	$72, %rsp
	.seh_endepilogue
	retq
.Ltmp574:
.Lfunc_end53:
	.seh_endproc

	.def	_RINvYNtNtNtCsaGRekH07FSF_4core3str4iter5CharsNtNtNtNtB9_4iter6traits8iterator8Iterator4folduNCINvNtNtBN_8adapters6filter11filter_foldcuNCNvXNtNtCs2J74ZzqJeQl_5types6string3strReNtB2g_6StrExt13is_palindrome0NCINvNvBH_8for_each4callcNCINvXsd_NtCsdKWIjqbzJ9K_5alloc6stringNtB3Q_6StringINtNtBL_7collect6ExtendcE6extendINtB1x_6FilterB3_B29_EE0E0E0EB2i_;
	.scl	2;
	.type	32;
	.endef
	.section	.text,"xr",one_only,_RINvYNtNtNtCsaGRekH07FSF_4core3str4iter5CharsNtNtNtNtB9_4iter6traits8iterator8Iterator4folduNCINvNtNtBN_8adapters6filter11filter_foldcuNCNvXNtNtCs2J74ZzqJeQl_5types6string3strReNtB2g_6StrExt13is_palindrome0NCINvNvBH_8for_each4callcNCINvXsd_NtCsdKWIjqbzJ9K_5alloc6stringNtB3Q_6StringINtNtBL_7collect6ExtendcE6extendINtB1x_6FilterB3_B29_EE0E0E0EB2i_,unique,55
	.globl	_RINvYNtNtNtCsaGRekH07FSF_4core3str4iter5CharsNtNtNtNtB9_4iter6traits8iterator8Iterator4folduNCINvNtNtBN_8adapters6filter11filter_foldcuNCNvXNtNtCs2J74ZzqJeQl_5types6string3strReNtB2g_6StrExt13is_palindrome0NCINvNvBH_8for_each4callcNCINvXsd_NtCsdKWIjqbzJ9K_5alloc6stringNtB3Q_6StringINtNtBL_7collect6ExtendcE6extendINtB1x_6FilterB3_B29_EE0E0E0EB2i_
	.p2align	4
_RINvYNtNtNtCsaGRekH07FSF_4core3str4iter5CharsNtNtNtNtB9_4iter6traits8iterator8Iterator4folduNCINvNtNtBN_8adapters6filter11filter_foldcuNCNvXNtNtCs2J74ZzqJeQl_5types6string3strReNtB2g_6StrExt13is_palindrome0NCINvNvBH_8for_each4callcNCINvXsd_NtCsdKWIjqbzJ9K_5alloc6stringNtB3Q_6StringINtNtBL_7collect6ExtendcE6extendINtB1x_6FilterB3_B29_EE0E0E0EB2i_:
.Lfunc_begin54:
	.cv_func_id 231
	.cv_loc	231 21 2596 0
.seh_proc _RINvYNtNtNtCsaGRekH07FSF_4core3str4iter5CharsNtNtNtNtB9_4iter6traits8iterator8Iterator4folduNCINvNtNtBN_8adapters6filter11filter_foldcuNCNvXNtNtCs2J74ZzqJeQl_5types6string3strReNtB2g_6StrExt13is_palindrome0NCINvNvBH_8for_each4callcNCINvXsd_NtCsdKWIjqbzJ9K_5alloc6stringNtB3Q_6StringINtNtBL_7collect6ExtendcE6extendINtB1x_6FilterB3_B29_EE0E0E0EB2i_
	subq	$72, %rsp
	.seh_stackalloc 72
	.seh_endprologue
	movq	%rcx, 32(%rsp)
	movq	%rdx, 40(%rsp)
	movq	%r8, 48(%rsp)
.Ltmp575:
	.cv_loc	231 21 2601 0
	movb	$1, 67(%rsp)
.LBB54_1:
.Ltmp576:
	.cv_loc	231 21 2602 0
	leaq	32(%rsp), %rcx
	callq	_RNvXNtNtCsaGRekH07FSF_4core3str4iterNtB2_5CharsNtNtNtNtB6_4iter6traits8iterator8Iterator4nextCs2J74ZzqJeQl_5types
	movl	%eax, 60(%rsp)
	movl	$1, %eax
	xorl	%ecx, %ecx
	cmpl	$1114112, 60(%rsp)
	cmoveq	%rcx, %rax
	testq	$1, %rax
	je	.LBB54_3
	movl	60(%rsp), %edx
	movl	%edx, 68(%rsp)
	.cv_loc	231 21 2603 0
	movb	$0, 67(%rsp)
	leaq	48(%rsp), %rcx
	callq	_RNCINvNtNtNtCsaGRekH07FSF_4core4iter8adapters6filter11filter_foldcuNCNvXNtNtCs2J74ZzqJeQl_5types6string3strReNtB1a_6StrExt13is_palindrome0NCINvNvNtNtNtB8_6traits8iterator8Iterator8for_each4callcNCINvXsd_NtCsdKWIjqbzJ9K_5alloc6stringNtB3f_6StringINtNtB2n_7collect6ExtendcE6extendINtB4_6FilterNtNtNtBa_3str4iter5CharsB13_EE0E0E0B1c_
	movb	$1, 67(%rsp)
.Ltmp577:
	.cv_loc	231 21 2602 0
	jmp	.LBB54_1
.Ltmp578:
.LBB54_3:
	.cv_loc	231 21 2606 0
	.seh_startepilogue
	addq	$72, %rsp
	.seh_endepilogue
	retq
.Ltmp579:
.Lfunc_end54:
	.seh_endproc

	.def	_RINvYNtNtNtCsaGRekH07FSF_4core3str4iter5CharsNtNtNtNtB9_4iter6traits8iterator8Iterator6filterNCNvXNtNtCs2J74ZzqJeQl_5types6string3strReNtB1A_6StrExt13is_palindrome0EB1C_;
	.scl	2;
	.type	32;
	.endef
	.section	.text,"xr",one_only,_RINvYNtNtNtCsaGRekH07FSF_4core3str4iter5CharsNtNtNtNtB9_4iter6traits8iterator8Iterator6filterNCNvXNtNtCs2J74ZzqJeQl_5types6string3strReNtB1A_6StrExt13is_palindrome0EB1C_,unique,56
	.globl	_RINvYNtNtNtCsaGRekH07FSF_4core3str4iter5CharsNtNtNtNtB9_4iter6traits8iterator8Iterator6filterNCNvXNtNtCs2J74ZzqJeQl_5types6string3strReNtB1A_6StrExt13is_palindrome0EB1C_
	.p2align	4
_RINvYNtNtNtCsaGRekH07FSF_4core3str4iter5CharsNtNtNtNtB9_4iter6traits8iterator8Iterator6filterNCNvXNtNtCs2J74ZzqJeQl_5types6string3strReNtB1A_6StrExt13is_palindrome0EB1C_:
.Lfunc_begin55:
	.cv_func_id 232
	.cv_loc	232 21 893 0
.seh_proc _RINvYNtNtNtCsaGRekH07FSF_4core3str4iter5CharsNtNtNtNtB9_4iter6traits8iterator8Iterator6filterNCNvXNtNtCs2J74ZzqJeQl_5types6string3strReNtB1A_6StrExt13is_palindrome0EB1C_
	subq	$24, %rsp
	.seh_stackalloc 24
	.seh_endprologue
	movq	%rcx, %rax
	movq	%rax, (%rsp)
	movq	%rdx, 8(%rsp)
	.cv_loc	232 21 899 0
	.seh_startepilogue
.Ltmp580:
	addq	$24, %rsp
	.seh_endepilogue
	retq
.Ltmp581:
.Lfunc_end55:
	.seh_endproc

	.def	_RNCINvMNtNtCsaGRekH07FSF_4core3ops9try_traitINtB5_17NeverShortCircuituE10wrap_mut_2ucNCINvNvNtNtNtNtB9_4iter6traits8iterator8Iterator8for_each4callcNCINvXsd_NtCsdKWIjqbzJ9K_5alloc6stringNtB2v_6StringINtNtB1w_7collect6ExtendcE6extendNtNtB9_4char11ToUppercaseE0E0E0Cs2J74ZzqJeQl_5types;
	.scl	2;
	.type	32;
	.endef
	.section	.text,"xr",one_only,_RNCINvMNtNtCsaGRekH07FSF_4core3ops9try_traitINtB5_17NeverShortCircuituE10wrap_mut_2ucNCINvNvNtNtNtNtB9_4iter6traits8iterator8Iterator8for_each4callcNCINvXsd_NtCsdKWIjqbzJ9K_5alloc6stringNtB2v_6StringINtNtB1w_7collect6ExtendcE6extendNtNtB9_4char11ToUppercaseE0E0E0Cs2J74ZzqJeQl_5types,unique,57
	.globl	_RNCINvMNtNtCsaGRekH07FSF_4core3ops9try_traitINtB5_17NeverShortCircuituE10wrap_mut_2ucNCINvNvNtNtNtNtB9_4iter6traits8iterator8Iterator8for_each4callcNCINvXsd_NtCsdKWIjqbzJ9K_5alloc6stringNtB2v_6StringINtNtB1w_7collect6ExtendcE6extendNtNtB9_4char11ToUppercaseE0E0E0Cs2J74ZzqJeQl_5types
	.p2align	4
_RNCINvMNtNtCsaGRekH07FSF_4core3ops9try_traitINtB5_17NeverShortCircuituE10wrap_mut_2ucNCINvNvNtNtNtNtB9_4iter6traits8iterator8Iterator8for_each4callcNCINvXsd_NtCsdKWIjqbzJ9K_5alloc6stringNtB2v_6StringINtNtB1w_7collect6ExtendcE6extendNtNtB9_4char11ToUppercaseE0E0E0Cs2J74ZzqJeQl_5types:
.Lfunc_begin56:
	.cv_func_id 233
	.cv_loc	233 30 414 0
.seh_proc _RNCINvMNtNtCsaGRekH07FSF_4core3ops9try_traitINtB5_17NeverShortCircuituE10wrap_mut_2ucNCINvNvNtNtNtNtB9_4iter6traits8iterator8Iterator8for_each4callcNCINvXsd_NtCsdKWIjqbzJ9K_5alloc6stringNtB2v_6StringINtNtB1w_7collect6ExtendcE6extendNtNtB9_4char11ToUppercaseE0E0E0Cs2J74ZzqJeQl_5types
	subq	$56, %rsp
	.seh_stackalloc 56
	.seh_endprologue
	movq	%rcx, 40(%rsp)
	movl	%edx, 52(%rsp)
.Ltmp582:
	callq	_RNCINvNvNtNtNtNtCsaGRekH07FSF_4core4iter6traits8iterator8Iterator8for_each4callcNCINvXsd_NtCsdKWIjqbzJ9K_5alloc6stringNtB1p_6StringINtNtBa_7collect6ExtendcE6extendNtNtBe_4char11ToUppercaseE0E0Cs2J74ZzqJeQl_5types
	nop
	.seh_startepilogue
	addq	$56, %rsp
	.seh_endepilogue
	retq
.Ltmp583:
.Lfunc_end56:
	.seh_endproc

	.def	_RNCINvMs6_NtNtNtCsaGRekH07FSF_4core5array4iter10iter_innerINtB8_15PolymorphicIterSINtNtNtBe_3mem12maybe_uninit11MaybeUninitcEE8try_folduNCINvMNtNtBe_3ops9try_traitINtB2g_17NeverShortCircuituE10wrap_mut_2ucNCINvNvNtNtNtNtBe_4iter6traits8iterator8Iterator8for_each4callcNCINvXsd_NtCsdKWIjqbzJ9K_5alloc6stringNtB4r_6StringINtNtB3s_7collect6ExtendcE6extendNtNtBe_4char11ToUppercaseE0E0E0B2B_E0Cs2J74ZzqJeQl_5types;
	.scl	2;
	.type	32;
	.endef
	.section	.text,"xr",one_only,_RNCINvMs6_NtNtNtCsaGRekH07FSF_4core5array4iter10iter_innerINtB8_15PolymorphicIterSINtNtNtBe_3mem12maybe_uninit11MaybeUninitcEE8try_folduNCINvMNtNtBe_3ops9try_traitINtB2g_17NeverShortCircuituE10wrap_mut_2ucNCINvNvNtNtNtNtBe_4iter6traits8iterator8Iterator8for_each4callcNCINvXsd_NtCsdKWIjqbzJ9K_5alloc6stringNtB4r_6StringINtNtB3s_7collect6ExtendcE6extendNtNtBe_4char11ToUppercaseE0E0E0B2B_E0Cs2J74ZzqJeQl_5types,unique,58
	.globl	_RNCINvMs6_NtNtNtCsaGRekH07FSF_4core5array4iter10iter_innerINtB8_15PolymorphicIterSINtNtNtBe_3mem12maybe_uninit11MaybeUninitcEE8try_folduNCINvMNtNtBe_3ops9try_traitINtB2g_17NeverShortCircuituE10wrap_mut_2ucNCINvNvNtNtNtNtBe_4iter6traits8iterator8Iterator8for_each4callcNCINvXsd_NtCsdKWIjqbzJ9K_5alloc6stringNtB4r_6StringINtNtB3s_7collect6ExtendcE6extendNtNtBe_4char11ToUppercaseE0E0E0B2B_E0Cs2J74ZzqJeQl_5types
	.p2align	4
_RNCINvMs6_NtNtNtCsaGRekH07FSF_4core5array4iter10iter_innerINtB8_15PolymorphicIterSINtNtNtBe_3mem12maybe_uninit11MaybeUninitcEE8try_folduNCINvMNtNtBe_3ops9try_traitINtB2g_17NeverShortCircuituE10wrap_mut_2ucNCINvNvNtNtNtNtBe_4iter6traits8iterator8Iterator8for_each4callcNCINvXsd_NtCsdKWIjqbzJ9K_5alloc6stringNtB4r_6StringINtNtB3s_7collect6ExtendcE6extendNtNtBe_4char11ToUppercaseE0E0E0B2B_E0Cs2J74ZzqJeQl_5types:
.Lfunc_begin57:
	.cv_func_id 234
	.cv_loc	234 31 215 0
.seh_proc _RNCINvMs6_NtNtNtCsaGRekH07FSF_4core5array4iter10iter_innerINtB8_15PolymorphicIterSINtNtNtBe_3mem12maybe_uninit11MaybeUninitcEE8try_folduNCINvMNtNtBe_3ops9try_traitINtB2g_17NeverShortCircuituE10wrap_mut_2ucNCINvNvNtNtNtNtBe_4iter6traits8iterator8Iterator8for_each4callcNCINvXsd_NtCsdKWIjqbzJ9K_5alloc6stringNtB4r_6StringINtNtB3s_7collect6ExtendcE6extendNtNtBe_4char11ToUppercaseE0E0E0B2B_E0Cs2J74ZzqJeQl_5types
	subq	$136, %rsp
	.seh_stackalloc 136
	.seh_endprologue
	movq	%rdx, 32(%rsp)
	movq	%rcx, %rax
	movq	%rax, 40(%rsp)
	movq	%rax, 64(%rsp)
	movq	64(%rsp), %rcx
	addq	$16, %rcx
	movq	%rcx, 72(%rsp)
	movq	%rdx, 88(%rsp)
.Ltmp584:
	.cv_loc	234 31 219 0
	movq	(%rax), %rcx
	movq	%rcx, 48(%rsp)
	movq	8(%rax), %rax
	movq	%rax, 56(%rsp)
	movq	%rcx, 96(%rsp)
	movq	%rax, 104(%rsp)
	.cv_inline_site_id 235 within 234 inlined_at 31 219 0
	.cv_inline_site_id 236 within 235 inlined_at 12 645 0
	.cv_loc	236 13 78 0
	movq	56(%rsp), %rdx
	movq	32(%rsp), %rcx
.Ltmp585:
	leaq	anon.d3fe902d2fc543e5a5ebd510b0621c19.25(%rip), %r8
	callq	_RNvNvXs0_NtNtCsaGRekH07FSF_4core5slice5indexjINtB7_10SliceIndexSpE13get_unchecked18precondition_checkCs2J74ZzqJeQl_5types
	.cv_loc	236 16 253 0
	movq	40(%rsp), %rcx
	movq	48(%rsp), %rax
	movq	32(%rsp), %rdx
	movq	%rdx, %r9
	shlq	$2, %r9
	movq	%rax, %r8
	addq	%r9, %r8
	movq	%r8, 112(%rsp)
.Ltmp586:
	.cv_file	38 "/rustc/1be6b13be73dc12e98e51b403add4c41a0b77759\\library\\core\\src\\mem\\maybe_uninit.rs" "227AE064A2921F270CB53F6CD1165917D15F88C52947256D75ACD04EE188B36A" 3
	.cv_inline_site_id 237 within 235 inlined_at 38 781 0
	.cv_loc	237 38 609 0
	movq	%r8, 120(%rsp)
.Ltmp587:
	.cv_inline_site_id 238 within 237 inlined_at 24 1171 0
	.cv_loc	238 11 1708 0
	movl	(%rax,%rdx,4), %edx
	movl	%edx, 132(%rsp)
.Ltmp588:
	.cv_loc	234 31 220 0
	addq	$16, %rcx
	callq	_RNCINvMNtNtCsaGRekH07FSF_4core3ops9try_traitINtB5_17NeverShortCircuituE10wrap_mut_2ucNCINvNvNtNtNtNtB9_4iter6traits8iterator8Iterator8for_each4callcNCINvXsd_NtCsdKWIjqbzJ9K_5alloc6stringNtB2v_6StringINtNtB1w_7collect6ExtendcE6extendNtNtB9_4char11ToUppercaseE0E0E0Cs2J74ZzqJeQl_5types
.Ltmp589:
	.cv_loc	234 31 221 0
	nop
	.seh_startepilogue
	addq	$136, %rsp
	.seh_endepilogue
	retq
.Ltmp590:
.Lfunc_end57:
	.seh_endproc

	.def	_RNCINvNtCsdKWIjqbzJ9K_5alloc3str17join_generic_copyehReEs_0Cs2J74ZzqJeQl_5types;
	.scl	2;
	.type	32;
	.endef
	.section	.text,"xr",one_only,_RNCINvNtCsdKWIjqbzJ9K_5alloc3str17join_generic_copyehReEs_0Cs2J74ZzqJeQl_5types,unique,59
	.globl	_RNCINvNtCsdKWIjqbzJ9K_5alloc3str17join_generic_copyehReEs_0Cs2J74ZzqJeQl_5types
	.p2align	4
_RNCINvNtCsdKWIjqbzJ9K_5alloc3str17join_generic_copyehReEs_0Cs2J74ZzqJeQl_5types:
.Lfunc_begin58:
	.cv_func_id 239
	.cv_loc	239 14 169 0
.seh_proc _RNCINvNtCsdKWIjqbzJ9K_5alloc3str17join_generic_copyehReEs_0Cs2J74ZzqJeQl_5types
	subq	$120, %rsp
	.seh_stackalloc 120
	.seh_endprologue
	movq	%rdx, 40(%rsp)
	movq	%rcx, %rax
	movq	40(%rsp), %rcx
	movq	%rax, 64(%rsp)
	movq	%rcx, 72(%rsp)
.Ltmp591:
	.cv_loc	239 14 170 0
	callq	_RNvXs0_NtCsaGRekH07FSF_4core6borrowReINtB5_6BorroweE6borrowCs2J74ZzqJeQl_5types
	movq	%rax, %rcx
	callq	_RNvXs_NtCsaGRekH07FSF_4core3streINtNtB6_7convert5AsRefShE6as_refCs2J74ZzqJeQl_5types
	movq	%rax, 48(%rsp)
	movq	%rdx, 56(%rsp)
	movq	%rax, 80(%rsp)
	movq	%rdx, 88(%rsp)
.Ltmp592:
	.cv_inline_site_id 240 within 239 inlined_at 14 171 0
	.cv_loc	240 12 726 0
	movq	%rax, 96(%rsp)
.Ltmp593:
	.cv_loc	240 24 49 0
	movq	%rax, 104(%rsp)
.Ltmp594:
	.cv_loc	239 14 171 0
	movq	%rdx, 112(%rsp)
	.cv_loc	240 13 78 0
	movq	56(%rsp), %r9
	movq	48(%rsp), %rcx
.Ltmp595:
	movl	$1, %r8d
	leaq	anon.d3fe902d2fc543e5a5ebd510b0621c19.26(%rip), %rax
	movq	%r8, %rdx
	movq	%rax, 32(%rsp)
	callq	_RNvNvNtNtCsaGRekH07FSF_4core5slice3raw14from_raw_parts18precondition_checkCs2J74ZzqJeQl_5types
.Ltmp596:
	.cv_loc	239 14 172 0
	movq	56(%rsp), %rdx
	movq	48(%rsp), %rax
	.seh_startepilogue
	addq	$120, %rsp
	.seh_endepilogue
	retq
.Ltmp597:
.Lfunc_end58:
	.seh_endproc

	.def	_RNCINvNtNtNtCsaGRekH07FSF_4core4iter8adapters3map12map_try_foldRRejjINtNtBa_6option6OptionjENCNCINvNtCsdKWIjqbzJ9K_5alloc3str17join_generic_copyehB10_E00NvMs9_NtBa_3numj11checked_addE0Cs2J74ZzqJeQl_5types;
	.scl	2;
	.type	32;
	.endef
	.section	.text,"xr",one_only,_RNCINvNtNtNtCsaGRekH07FSF_4core4iter8adapters3map12map_try_foldRRejjINtNtBa_6option6OptionjENCNCINvNtCsdKWIjqbzJ9K_5alloc3str17join_generic_copyehB10_E00NvMs9_NtBa_3numj11checked_addE0Cs2J74ZzqJeQl_5types,unique,60
	.globl	_RNCINvNtNtNtCsaGRekH07FSF_4core4iter8adapters3map12map_try_foldRRejjINtNtBa_6option6OptionjENCNCINvNtCsdKWIjqbzJ9K_5alloc3str17join_generic_copyehB10_E00NvMs9_NtBa_3numj11checked_addE0Cs2J74ZzqJeQl_5types
	.p2align	4
_RNCINvNtNtNtCsaGRekH07FSF_4core4iter8adapters3map12map_try_foldRRejjINtNtBa_6option6OptionjENCNCINvNtCsdKWIjqbzJ9K_5alloc3str17join_generic_copyehB10_E00NvMs9_NtBa_3numj11checked_addE0Cs2J74ZzqJeQl_5types:
.Lfunc_begin59:
	.cv_func_id 241
	.cv_loc	241 17 95 0
.seh_proc _RNCINvNtNtNtCsaGRekH07FSF_4core4iter8adapters3map12map_try_foldRRejjINtNtBa_6option6OptionjENCNCINvNtCsdKWIjqbzJ9K_5alloc3str17join_generic_copyehB10_E00NvMs9_NtBa_3numj11checked_addE0Cs2J74ZzqJeQl_5types
	subq	$104, %rsp
	.seh_stackalloc 104
	.seh_endprologue
	movq	%r8, 40(%rsp)
	movq	%rdx, %rax
	movq	40(%rsp), %rdx
	movq	%rax, 56(%rsp)
	movq	%rcx, 72(%rsp)
	movq	72(%rsp), %r8
	addq	$8, %r8
	movq	%r8, 80(%rsp)
	movq	%rax, 88(%rsp)
	movq	%rdx, 96(%rsp)
.Ltmp598:
	movq	%rcx, %rax
	addq	$8, %rax
	movq	%rax, 48(%rsp)
	movb	$1, 71(%rsp)
	movq	(%rcx), %rcx
	callq	_RNCNCINvNtCsdKWIjqbzJ9K_5alloc3str17join_generic_copyehReE00Cs2J74ZzqJeQl_5types
	movq	48(%rsp), %rcx
	movq	56(%rsp), %rdx
	movq	%rax, %r8
	movb	$0, 71(%rsp)
	callq	_RNvYNvMs9_NtCsaGRekH07FSF_4core3numj11checked_addINtNtNtBa_3ops8function5FnMutTjjEE8call_mutCs2J74ZzqJeQl_5types
	nop
	.seh_startepilogue
	addq	$104, %rsp
	.seh_endepilogue
	retq
.Ltmp599:
.Lfunc_end59:
	.seh_endproc

	.def	_RNCINvNtNtNtCsaGRekH07FSF_4core4iter8adapters6filter11filter_foldcuNCNvXNtNtCs2J74ZzqJeQl_5types6string3strReNtB1a_6StrExt13is_palindrome0NCINvNvNtNtNtB8_6traits8iterator8Iterator8for_each4callcNCINvXsd_NtCsdKWIjqbzJ9K_5alloc6stringNtB3f_6StringINtNtB2n_7collect6ExtendcE6extendINtB4_6FilterNtNtNtBa_3str4iter5CharsB13_EE0E0E0B1c_;
	.scl	2;
	.type	32;
	.endef
	.section	.text,"xr",one_only,_RNCINvNtNtNtCsaGRekH07FSF_4core4iter8adapters6filter11filter_foldcuNCNvXNtNtCs2J74ZzqJeQl_5types6string3strReNtB1a_6StrExt13is_palindrome0NCINvNvNtNtNtB8_6traits8iterator8Iterator8for_each4callcNCINvXsd_NtCsdKWIjqbzJ9K_5alloc6stringNtB3f_6StringINtNtB2n_7collect6ExtendcE6extendINtB4_6FilterNtNtNtBa_3str4iter5CharsB13_EE0E0E0B1c_,unique,61
	.globl	_RNCINvNtNtNtCsaGRekH07FSF_4core4iter8adapters6filter11filter_foldcuNCNvXNtNtCs2J74ZzqJeQl_5types6string3strReNtB1a_6StrExt13is_palindrome0NCINvNvNtNtNtB8_6traits8iterator8Iterator8for_each4callcNCINvXsd_NtCsdKWIjqbzJ9K_5alloc6stringNtB3f_6StringINtNtB2n_7collect6ExtendcE6extendINtB4_6FilterNtNtNtBa_3str4iter5CharsB13_EE0E0E0B1c_
	.p2align	4
_RNCINvNtNtNtCsaGRekH07FSF_4core4iter8adapters6filter11filter_foldcuNCNvXNtNtCs2J74ZzqJeQl_5types6string3strReNtB1a_6StrExt13is_palindrome0NCINvNvNtNtNtB8_6traits8iterator8Iterator8for_each4callcNCINvXsd_NtCsdKWIjqbzJ9K_5alloc6stringNtB3f_6StringINtNtB2n_7collect6ExtendcE6extendINtB4_6FilterNtNtNtBa_3str4iter5CharsB13_EE0E0E0B1c_:
.Lfunc_begin60:
	.cv_func_id 242
	.cv_loc	242 28 79 0
.seh_proc _RNCINvNtNtNtCsaGRekH07FSF_4core4iter8adapters6filter11filter_foldcuNCNvXNtNtCs2J74ZzqJeQl_5types6string3strReNtB1a_6StrExt13is_palindrome0NCINvNvNtNtNtB8_6traits8iterator8Iterator8for_each4callcNCINvXsd_NtCsdKWIjqbzJ9K_5alloc6stringNtB3f_6StringINtNtB2n_7collect6ExtendcE6extendINtB4_6FilterNtNtNtBa_3str4iter5CharsB13_EE0E0E0B1c_
	subq	$72, %rsp
	.seh_stackalloc 72
	.seh_endprologue
	movq	%rcx, 40(%rsp)
	movl	%edx, 48(%rsp)
	movq	%rcx, 56(%rsp)
	movq	56(%rsp), %rax
	addq	$8, %rax
	movq	%rax, 64(%rsp)
.Ltmp600:
	movb	$1, 55(%rsp)
	movb	$1, 54(%rsp)
	addq	$8, %rcx
	leaq	48(%rsp), %rdx
	callq	_RNCNvXNtNtCs2J74ZzqJeQl_5types6string3strReNtB6_6StrExt13is_palindrome0B8_
	testb	$1, %al
	jne	.LBB60_2
	movb	$0, 55(%rsp)
	jmp	.LBB60_3
.LBB60_2:
	movq	40(%rsp), %rcx
	movb	$0, 55(%rsp)
	movb	$0, 54(%rsp)
	movl	48(%rsp), %edx
	callq	_RNCINvNvNtNtNtNtCsaGRekH07FSF_4core4iter6traits8iterator8Iterator8for_each4callcNCINvXsd_NtCsdKWIjqbzJ9K_5alloc6stringNtB1p_6StringINtNtBa_7collect6ExtendcE6extendINtNtNtBc_8adapters6filter6FilterNtNtNtBe_3str4iter5CharsNCNvXNtNtCs2J74ZzqJeQl_5types6string3strReNtB3D_6StrExt13is_palindrome0EE0E0B3F_
.LBB60_3:
	nop
	.seh_startepilogue
	addq	$72, %rsp
	.seh_endepilogue
	retq
.Ltmp601:
.Lfunc_end60:
	.seh_endproc

	.def	_RNCINvNvNtNtNtNtCsaGRekH07FSF_4core4iter6traits12double_ended19DoubleEndedIterator5rfind5checkReQNtNtBe_3str10IsNotEmptyE0Cs2J74ZzqJeQl_5types;
	.scl	2;
	.type	32;
	.endef
	.section	.text,"xr",one_only,_RNCINvNvNtNtNtNtCsaGRekH07FSF_4core4iter6traits12double_ended19DoubleEndedIterator5rfind5checkReQNtNtBe_3str10IsNotEmptyE0Cs2J74ZzqJeQl_5types,unique,62
	.globl	_RNCINvNvNtNtNtNtCsaGRekH07FSF_4core4iter6traits12double_ended19DoubleEndedIterator5rfind5checkReQNtNtBe_3str10IsNotEmptyE0Cs2J74ZzqJeQl_5types
	.p2align	4
_RNCINvNvNtNtNtNtCsaGRekH07FSF_4core4iter6traits12double_ended19DoubleEndedIterator5rfind5checkReQNtNtBe_3str10IsNotEmptyE0Cs2J74ZzqJeQl_5types:
.Lfunc_begin61:
	.cv_func_id 243
	.cv_loc	243 36 363 0
.seh_proc _RNCINvNvNtNtNtNtCsaGRekH07FSF_4core4iter6traits12double_ended19DoubleEndedIterator5rfind5checkReQNtNtBe_3str10IsNotEmptyE0Cs2J74ZzqJeQl_5types
	subq	$72, %rsp
	.seh_stackalloc 72
	.seh_endprologue
	movq	%rdx, 32(%rsp)
	movq	%r8, 40(%rsp)
	movq	%rcx, 64(%rsp)
.Ltmp602:
	.cv_loc	243 36 364 0
	leaq	32(%rsp), %rdx
	callq	_RNvXs1_NtNtNtCsaGRekH07FSF_4core3ops8function5implsQNtNtBb_3str10IsNotEmptyINtB7_5FnMutTRReEE8call_mutCs2J74ZzqJeQl_5types
	testb	$1, %al
	jne	.LBB61_2
	movq	$0, 48(%rsp)
	.cv_loc	243 36 365 0
	jmp	.LBB61_3
.LBB61_2:
	.cv_loc	243 36 364 0
	movq	32(%rsp), %rcx
	movq	40(%rsp), %rax
	movq	%rcx, 48(%rsp)
	movq	%rax, 56(%rsp)
.LBB61_3:
	.cv_loc	243 36 365 0
	movq	48(%rsp), %rax
	movq	56(%rsp), %rdx
	.seh_startepilogue
	addq	$72, %rsp
	.seh_endepilogue
	retq
.Ltmp603:
.Lfunc_end61:
	.seh_endproc

	.def	_RNCINvNvNtNtNtNtCsaGRekH07FSF_4core4iter6traits8iterator8Iterator8for_each4callcNCINvXsd_NtCsdKWIjqbzJ9K_5alloc6stringNtB1p_6StringINtNtBa_7collect6ExtendcE6extendINtNtNtBc_8adapters3rev3RevNtNtNtBe_3str4iter5CharsEE0E0Cs2J74ZzqJeQl_5types;
	.scl	2;
	.type	32;
	.endef
	.section	.text,"xr",one_only,_RNCINvNvNtNtNtNtCsaGRekH07FSF_4core4iter6traits8iterator8Iterator8for_each4callcNCINvXsd_NtCsdKWIjqbzJ9K_5alloc6stringNtB1p_6StringINtNtBa_7collect6ExtendcE6extendINtNtNtBc_8adapters3rev3RevNtNtNtBe_3str4iter5CharsEE0E0Cs2J74ZzqJeQl_5types,unique,63
	.globl	_RNCINvNvNtNtNtNtCsaGRekH07FSF_4core4iter6traits8iterator8Iterator8for_each4callcNCINvXsd_NtCsdKWIjqbzJ9K_5alloc6stringNtB1p_6StringINtNtBa_7collect6ExtendcE6extendINtNtNtBc_8adapters3rev3RevNtNtNtBe_3str4iter5CharsEE0E0Cs2J74ZzqJeQl_5types
	.p2align	4
_RNCINvNvNtNtNtNtCsaGRekH07FSF_4core4iter6traits8iterator8Iterator8for_each4callcNCINvXsd_NtCsdKWIjqbzJ9K_5alloc6stringNtB1p_6StringINtNtBa_7collect6ExtendcE6extendINtNtNtBc_8adapters3rev3RevNtNtNtBe_3str4iter5CharsEE0E0Cs2J74ZzqJeQl_5types:
.Lfunc_begin62:
	.cv_func_id 244
	.cv_loc	244 21 825 0
.seh_proc _RNCINvNvNtNtNtNtCsaGRekH07FSF_4core4iter6traits8iterator8Iterator8for_each4callcNCINvXsd_NtCsdKWIjqbzJ9K_5alloc6stringNtB1p_6StringINtNtBa_7collect6ExtendcE6extendINtNtNtBc_8adapters3rev3RevNtNtNtBe_3str4iter5CharsEE0E0Cs2J74ZzqJeQl_5types
	subq	$56, %rsp
	.seh_stackalloc 56
	.seh_endprologue
	movq	%rcx, 40(%rsp)
	movl	%edx, 52(%rsp)
.Ltmp604:
	callq	_RNCINvXsd_NtCsdKWIjqbzJ9K_5alloc6stringNtB8_6StringINtNtNtNtCsaGRekH07FSF_4core4iter6traits7collect6ExtendcE6extendINtNtNtBU_8adapters3rev3RevNtNtNtBW_3str4iter5CharsEE0Cs2J74ZzqJeQl_5types
	nop
	.seh_startepilogue
	addq	$56, %rsp
	.seh_endepilogue
	retq
.Ltmp605:
.Lfunc_end62:
	.seh_endproc

	.def	_RNCINvNvNtNtNtNtCsaGRekH07FSF_4core4iter6traits8iterator8Iterator8for_each4callcNCINvXsd_NtCsdKWIjqbzJ9K_5alloc6stringNtB1p_6StringINtNtBa_7collect6ExtendcE6extendINtNtNtBc_8adapters6filter6FilterNtNtNtBe_3str4iter5CharsNCNvXNtNtCs2J74ZzqJeQl_5types6string3strReNtB3D_6StrExt13is_palindrome0EE0E0B3F_;
	.scl	2;
	.type	32;
	.endef
	.section	.text,"xr",one_only,_RNCINvNvNtNtNtNtCsaGRekH07FSF_4core4iter6traits8iterator8Iterator8for_each4callcNCINvXsd_NtCsdKWIjqbzJ9K_5alloc6stringNtB1p_6StringINtNtBa_7collect6ExtendcE6extendINtNtNtBc_8adapters6filter6FilterNtNtNtBe_3str4iter5CharsNCNvXNtNtCs2J74ZzqJeQl_5types6string3strReNtB3D_6StrExt13is_palindrome0EE0E0B3F_,unique,64
	.globl	_RNCINvNvNtNtNtNtCsaGRekH07FSF_4core4iter6traits8iterator8Iterator8for_each4callcNCINvXsd_NtCsdKWIjqbzJ9K_5alloc6stringNtB1p_6StringINtNtBa_7collect6ExtendcE6extendINtNtNtBc_8adapters6filter6FilterNtNtNtBe_3str4iter5CharsNCNvXNtNtCs2J74ZzqJeQl_5types6string3strReNtB3D_6StrExt13is_palindrome0EE0E0B3F_
	.p2align	4
_RNCINvNvNtNtNtNtCsaGRekH07FSF_4core4iter6traits8iterator8Iterator8for_each4callcNCINvXsd_NtCsdKWIjqbzJ9K_5alloc6stringNtB1p_6StringINtNtBa_7collect6ExtendcE6extendINtNtNtBc_8adapters6filter6FilterNtNtNtBe_3str4iter5CharsNCNvXNtNtCs2J74ZzqJeQl_5types6string3strReNtB3D_6StrExt13is_palindrome0EE0E0B3F_:
.Lfunc_begin63:
	.cv_func_id 245
	.cv_loc	245 21 825 0
.seh_proc _RNCINvNvNtNtNtNtCsaGRekH07FSF_4core4iter6traits8iterator8Iterator8for_each4callcNCINvXsd_NtCsdKWIjqbzJ9K_5alloc6stringNtB1p_6StringINtNtBa_7collect6ExtendcE6extendINtNtNtBc_8adapters6filter6FilterNtNtNtBe_3str4iter5CharsNCNvXNtNtCs2J74ZzqJeQl_5types6string3strReNtB3D_6StrExt13is_palindrome0EE0E0B3F_
	subq	$56, %rsp
	.seh_stackalloc 56
	.seh_endprologue
	movq	%rcx, 40(%rsp)
	movl	%edx, 52(%rsp)
.Ltmp606:
	callq	_RNCINvXsd_NtCsdKWIjqbzJ9K_5alloc6stringNtB8_6StringINtNtNtNtCsaGRekH07FSF_4core4iter6traits7collect6ExtendcE6extendINtNtNtBU_8adapters6filter6FilterNtNtNtBW_3str4iter5CharsNCNvXNtNtCs2J74ZzqJeQl_5types6string3strReNtB2R_6StrExt13is_palindrome0EE0B2T_
	nop
	.seh_startepilogue
	addq	$56, %rsp
	.seh_endepilogue
	retq
.Ltmp607:
.Lfunc_end63:
	.seh_endproc

	.def	_RNCINvNvNtNtNtNtCsaGRekH07FSF_4core4iter6traits8iterator8Iterator8for_each4callcNCINvXsd_NtCsdKWIjqbzJ9K_5alloc6stringNtB1p_6StringINtNtBa_7collect6ExtendcE6extendNtNtBe_4char11ToUppercaseE0E0Cs2J74ZzqJeQl_5types;
	.scl	2;
	.type	32;
	.endef
	.section	.text,"xr",one_only,_RNCINvNvNtNtNtNtCsaGRekH07FSF_4core4iter6traits8iterator8Iterator8for_each4callcNCINvXsd_NtCsdKWIjqbzJ9K_5alloc6stringNtB1p_6StringINtNtBa_7collect6ExtendcE6extendNtNtBe_4char11ToUppercaseE0E0Cs2J74ZzqJeQl_5types,unique,65
	.globl	_RNCINvNvNtNtNtNtCsaGRekH07FSF_4core4iter6traits8iterator8Iterator8for_each4callcNCINvXsd_NtCsdKWIjqbzJ9K_5alloc6stringNtB1p_6StringINtNtBa_7collect6ExtendcE6extendNtNtBe_4char11ToUppercaseE0E0Cs2J74ZzqJeQl_5types
	.p2align	4
_RNCINvNvNtNtNtNtCsaGRekH07FSF_4core4iter6traits8iterator8Iterator8for_each4callcNCINvXsd_NtCsdKWIjqbzJ9K_5alloc6stringNtB1p_6StringINtNtBa_7collect6ExtendcE6extendNtNtBe_4char11ToUppercaseE0E0Cs2J74ZzqJeQl_5types:
.Lfunc_begin64:
	.cv_func_id 246
	.cv_loc	246 21 825 0
.seh_proc _RNCINvNvNtNtNtNtCsaGRekH07FSF_4core4iter6traits8iterator8Iterator8for_each4callcNCINvXsd_NtCsdKWIjqbzJ9K_5alloc6stringNtB1p_6StringINtNtBa_7collect6ExtendcE6extendNtNtBe_4char11ToUppercaseE0E0Cs2J74ZzqJeQl_5types
	subq	$56, %rsp
	.seh_stackalloc 56
	.seh_endprologue
	movq	%rcx, 40(%rsp)
	movl	%edx, 52(%rsp)
.Ltmp608:
	callq	_RNCINvXsd_NtCsdKWIjqbzJ9K_5alloc6stringNtB8_6StringINtNtNtNtCsaGRekH07FSF_4core4iter6traits7collect6ExtendcE6extendNtNtBW_4char11ToUppercaseE0Cs2J74ZzqJeQl_5types
	nop
	.seh_startepilogue
	addq	$56, %rsp
	.seh_endepilogue
	retq
.Ltmp609:
.Lfunc_end64:
	.seh_endproc

	.def	_RNCINvXsd_NtCsdKWIjqbzJ9K_5alloc6stringNtB8_6StringINtNtNtNtCsaGRekH07FSF_4core4iter6traits7collect6ExtendcE6extendINtNtNtBU_8adapters3rev3RevNtNtNtBW_3str4iter5CharsEE0Cs2J74ZzqJeQl_5types;
	.scl	2;
	.type	32;
	.endef
	.section	.text,"xr",one_only,_RNCINvXsd_NtCsdKWIjqbzJ9K_5alloc6stringNtB8_6StringINtNtNtNtCsaGRekH07FSF_4core4iter6traits7collect6ExtendcE6extendINtNtNtBU_8adapters3rev3RevNtNtNtBW_3str4iter5CharsEE0Cs2J74ZzqJeQl_5types,unique,66
	.globl	_RNCINvXsd_NtCsdKWIjqbzJ9K_5alloc6stringNtB8_6StringINtNtNtNtCsaGRekH07FSF_4core4iter6traits7collect6ExtendcE6extendINtNtNtBU_8adapters3rev3RevNtNtNtBW_3str4iter5CharsEE0Cs2J74ZzqJeQl_5types
	.p2align	4
_RNCINvXsd_NtCsdKWIjqbzJ9K_5alloc6stringNtB8_6StringINtNtNtNtCsaGRekH07FSF_4core4iter6traits7collect6ExtendcE6extendINtNtNtBU_8adapters3rev3RevNtNtNtBW_3str4iter5CharsEE0Cs2J74ZzqJeQl_5types:
.Lfunc_begin65:
	.cv_func_id 247
	.cv_loc	247 32 2456 0
.seh_proc _RNCINvXsd_NtCsdKWIjqbzJ9K_5alloc6stringNtB8_6StringINtNtNtNtCsaGRekH07FSF_4core4iter6traits7collect6ExtendcE6extendINtNtNtBU_8adapters3rev3RevNtNtNtBW_3str4iter5CharsEE0Cs2J74ZzqJeQl_5types
	subq	$56, %rsp
	.seh_stackalloc 56
	.seh_endprologue
	movq	%rcx, 40(%rsp)
	movl	%edx, 52(%rsp)
.Ltmp610:
	movq	(%rcx), %rcx
	callq	_RNvMNtCsdKWIjqbzJ9K_5alloc6stringNtB2_6String4pushCs2J74ZzqJeQl_5types
	nop
	.seh_startepilogue
	addq	$56, %rsp
	.seh_endepilogue
	retq
.Ltmp611:
.Lfunc_end65:
	.seh_endproc

	.def	_RNCINvXsd_NtCsdKWIjqbzJ9K_5alloc6stringNtB8_6StringINtNtNtNtCsaGRekH07FSF_4core4iter6traits7collect6ExtendcE6extendINtNtNtBU_8adapters6filter6FilterNtNtNtBW_3str4iter5CharsNCNvXNtNtCs2J74ZzqJeQl_5types6string3strReNtB2R_6StrExt13is_palindrome0EE0B2T_;
	.scl	2;
	.type	32;
	.endef
	.section	.text,"xr",one_only,_RNCINvXsd_NtCsdKWIjqbzJ9K_5alloc6stringNtB8_6StringINtNtNtNtCsaGRekH07FSF_4core4iter6traits7collect6ExtendcE6extendINtNtNtBU_8adapters6filter6FilterNtNtNtBW_3str4iter5CharsNCNvXNtNtCs2J74ZzqJeQl_5types6string3strReNtB2R_6StrExt13is_palindrome0EE0B2T_,unique,67
	.globl	_RNCINvXsd_NtCsdKWIjqbzJ9K_5alloc6stringNtB8_6StringINtNtNtNtCsaGRekH07FSF_4core4iter6traits7collect6ExtendcE6extendINtNtNtBU_8adapters6filter6FilterNtNtNtBW_3str4iter5CharsNCNvXNtNtCs2J74ZzqJeQl_5types6string3strReNtB2R_6StrExt13is_palindrome0EE0B2T_
	.p2align	4
_RNCINvXsd_NtCsdKWIjqbzJ9K_5alloc6stringNtB8_6StringINtNtNtNtCsaGRekH07FSF_4core4iter6traits7collect6ExtendcE6extendINtNtNtBU_8adapters6filter6FilterNtNtNtBW_3str4iter5CharsNCNvXNtNtCs2J74ZzqJeQl_5types6string3strReNtB2R_6StrExt13is_palindrome0EE0B2T_:
.Lfunc_begin66:
	.cv_func_id 248
	.cv_loc	248 32 2456 0
.seh_proc _RNCINvXsd_NtCsdKWIjqbzJ9K_5alloc6stringNtB8_6StringINtNtNtNtCsaGRekH07FSF_4core4iter6traits7collect6ExtendcE6extendINtNtNtBU_8adapters6filter6FilterNtNtNtBW_3str4iter5CharsNCNvXNtNtCs2J74ZzqJeQl_5types6string3strReNtB2R_6StrExt13is_palindrome0EE0B2T_
	subq	$56, %rsp
	.seh_stackalloc 56
	.seh_endprologue
	movq	%rcx, 40(%rsp)
	movl	%edx, 52(%rsp)
.Ltmp612:
	movq	(%rcx), %rcx
	callq	_RNvMNtCsdKWIjqbzJ9K_5alloc6stringNtB2_6String4pushCs2J74ZzqJeQl_5types
	nop
	.seh_startepilogue
	addq	$56, %rsp
	.seh_endepilogue
	retq
.Ltmp613:
.Lfunc_end66:
	.seh_endproc

	.def	_RNCINvXsd_NtCsdKWIjqbzJ9K_5alloc6stringNtB8_6StringINtNtNtNtCsaGRekH07FSF_4core4iter6traits7collect6ExtendcE6extendNtNtBW_4char11ToUppercaseE0Cs2J74ZzqJeQl_5types;
	.scl	2;
	.type	32;
	.endef
	.section	.text,"xr",one_only,_RNCINvXsd_NtCsdKWIjqbzJ9K_5alloc6stringNtB8_6StringINtNtNtNtCsaGRekH07FSF_4core4iter6traits7collect6ExtendcE6extendNtNtBW_4char11ToUppercaseE0Cs2J74ZzqJeQl_5types,unique,68
	.globl	_RNCINvXsd_NtCsdKWIjqbzJ9K_5alloc6stringNtB8_6StringINtNtNtNtCsaGRekH07FSF_4core4iter6traits7collect6ExtendcE6extendNtNtBW_4char11ToUppercaseE0Cs2J74ZzqJeQl_5types
	.p2align	4
_RNCINvXsd_NtCsdKWIjqbzJ9K_5alloc6stringNtB8_6StringINtNtNtNtCsaGRekH07FSF_4core4iter6traits7collect6ExtendcE6extendNtNtBW_4char11ToUppercaseE0Cs2J74ZzqJeQl_5types:
.Lfunc_begin67:
	.cv_func_id 249
	.cv_loc	249 32 2456 0
.seh_proc _RNCINvXsd_NtCsdKWIjqbzJ9K_5alloc6stringNtB8_6StringINtNtNtNtCsaGRekH07FSF_4core4iter6traits7collect6ExtendcE6extendNtNtBW_4char11ToUppercaseE0Cs2J74ZzqJeQl_5types
	subq	$56, %rsp
	.seh_stackalloc 56
	.seh_endprologue
	movq	%rcx, 40(%rsp)
	movl	%edx, 52(%rsp)
.Ltmp614:
	movq	(%rcx), %rcx
	callq	_RNvMNtCsdKWIjqbzJ9K_5alloc6stringNtB2_6String4pushCs2J74ZzqJeQl_5types
	nop
	.seh_startepilogue
	addq	$56, %rsp
	.seh_endepilogue
	retq
.Ltmp615:
.Lfunc_end67:
	.seh_endproc

	.def	_RNCNCINvNtCsdKWIjqbzJ9K_5alloc3str17join_generic_copyehReE00Cs2J74ZzqJeQl_5types;
	.scl	2;
	.type	32;
	.endef
	.section	.text,"xr",one_only,_RNCNCINvNtCsdKWIjqbzJ9K_5alloc3str17join_generic_copyehReE00Cs2J74ZzqJeQl_5types,unique,69
	.globl	_RNCNCINvNtCsdKWIjqbzJ9K_5alloc3str17join_generic_copyehReE00Cs2J74ZzqJeQl_5types
	.p2align	4
_RNCNCINvNtCsdKWIjqbzJ9K_5alloc3str17join_generic_copyehReE00Cs2J74ZzqJeQl_5types:
.Lfunc_begin68:
	.cv_func_id 250
	.cv_loc	250 14 152 0
.seh_proc _RNCNCINvNtCsdKWIjqbzJ9K_5alloc3str17join_generic_copyehReE00Cs2J74ZzqJeQl_5types
	subq	$56, %rsp
	.seh_stackalloc 56
	.seh_endprologue
	movq	%rdx, 32(%rsp)
	movq	%rcx, %rax
	movq	32(%rsp), %rcx
	movq	%rax, 40(%rsp)
	movq	%rcx, 48(%rsp)
.Ltmp616:
	callq	_RNvXs0_NtCsaGRekH07FSF_4core6borrowReINtB5_6BorroweE6borrowCs2J74ZzqJeQl_5types
	movq	%rax, %rcx
	callq	_RNvXs_NtCsaGRekH07FSF_4core3streINtNtB6_7convert5AsRefShE6as_refCs2J74ZzqJeQl_5types
	movq	%rdx, %rax
	.seh_startepilogue
	addq	$56, %rsp
	.seh_endepilogue
	retq
.Ltmp617:
.Lfunc_end68:
	.seh_endproc

	.def	_RNCNvNtCsdKWIjqbzJ9K_5alloc3fmt6format0Cs2J74ZzqJeQl_5types;
	.scl	2;
	.type	32;
	.endef
	.section	.text,"xr",one_only,_RNCNvNtCsdKWIjqbzJ9K_5alloc3fmt6format0Cs2J74ZzqJeQl_5types,unique,70
	.globl	_RNCNvNtCsdKWIjqbzJ9K_5alloc3fmt6format0Cs2J74ZzqJeQl_5types
	.p2align	4
_RNCNvNtCsdKWIjqbzJ9K_5alloc3fmt6format0Cs2J74ZzqJeQl_5types:
.Lfunc_begin69:
	.cv_func_id 251
	.cv_file	39 "/rustc/1be6b13be73dc12e98e51b403add4c41a0b77759\\library\\alloc\\src\\fmt.rs" "EFB7469C023B924D8041572AB752620AB5122B60F92BFA86E4E789D6D838930A" 3
	.cv_loc	251 39 654 0
.seh_proc _RNCNvNtCsdKWIjqbzJ9K_5alloc3fmt6format0Cs2J74ZzqJeQl_5types
	subq	$56, %rsp
	.seh_stackalloc 56
	.seh_endprologue
	movq	%rdx, %rax
	movq	%rcx, %rdx
	movq	%rdx, 40(%rsp)
	movq	%rax, 48(%rsp)
.Ltmp618:
	movq	(%rax), %rdx
	movq	8(%rax), %r8
	callq	_RNvNvNtCsdKWIjqbzJ9K_5alloc3fmt6format12format_inner
	movq	40(%rsp), %rax
	.seh_startepilogue
	addq	$56, %rsp
	.seh_endepilogue
	retq
.Ltmp619:
.Lfunc_end69:
	.seh_endproc

	.def	_RNCNvXNtNtCs2J74ZzqJeQl_5types6string3strReNtB6_6StrExt13is_palindrome0B8_;
	.scl	3;
	.type	32;
	.endef
	.section	.text,"xr",one_only,_RNCNvXNtNtCs2J74ZzqJeQl_5types6string3strReNtB6_6StrExt13is_palindrome0B8_,unique,71
	.p2align	4
_RNCNvXNtNtCs2J74ZzqJeQl_5types6string3strReNtB6_6StrExt13is_palindrome0B8_:
.Lfunc_begin70:
	.cv_func_id 252
	.cv_file	40 "C:\\Users\\James\\Documents\\crates\\useful-rust-modules\\crates\\types\\src\\string\\str.rs" "06762667C234A91A88B4ABEBDB21D4CC7BDDCC453411B44721498E4198CCF860" 3
	.cv_loc	252 40 4 0
.seh_proc _RNCNvXNtNtCs2J74ZzqJeQl_5types6string3strReNtB6_6StrExt13is_palindrome0B8_
	subq	$56, %rsp
	.seh_stackalloc 56
	.seh_endprologue
	movq	%rcx, 40(%rsp)
	movq	%rdx, 48(%rsp)
.Ltmp620:
	movl	(%rdx), %ecx
	callq	_RNvMNtNtCsaGRekH07FSF_4core4char7methodsc15is_alphanumericCs2J74ZzqJeQl_5types
	andb	$1, %al
	.seh_startepilogue
	addq	$56, %rsp
	.seh_endepilogue
	retq
.Ltmp621:
.Lfunc_end70:
	.seh_endproc

	.def	_RNvMNtCsaGRekH07FSF_4core3stre16split_whitespaceCs2J74ZzqJeQl_5types;
	.scl	3;
	.type	32;
	.endef
	.section	.text,"xr",one_only,_RNvMNtCsaGRekH07FSF_4core3stre16split_whitespaceCs2J74ZzqJeQl_5types,unique,72
	.p2align	4
_RNvMNtCsaGRekH07FSF_4core3stre16split_whitespaceCs2J74ZzqJeQl_5types:
.Lfunc_begin71:
	.cv_func_id 253
	.cv_file	41 "/rustc/1be6b13be73dc12e98e51b403add4c41a0b77759\\library\\core\\src\\str\\mod.rs" "268ACA13038B131F5916F353634B6B5B5D8F4B3C440873E4AC7C6DF23E1C4121" 3
	.cv_loc	253 41 1182 0
.seh_proc _RNvMNtCsaGRekH07FSF_4core3stre16split_whitespaceCs2J74ZzqJeQl_5types
	subq	$360, %rsp
	.seh_stackalloc 360
	.seh_endprologue
	movq	%r8, 40(%rsp)
	movq	%rcx, 48(%rsp)
	movq	%rcx, 56(%rsp)
	movq	%rdx, 336(%rsp)
	movq	%r8, 344(%rsp)
.Ltmp622:
	.cv_file	42 "/rustc/1be6b13be73dc12e98e51b403add4c41a0b77759\\library\\core\\src\\str\\pattern.rs" "7E5917715CD31910FEDCF16B72593D004D3E6BD447C2BD02013DBA6A326420AE" 3
	.cv_inline_site_id 254 within 253 inlined_at 41 1183 0
	.cv_inline_site_id 255 within 254 inlined_at 41 1643 0
	.cv_loc	255 42 737 0
	leaq	296(%rsp), %rcx
	callq	_RNvXs7_NtNtCsaGRekH07FSF_4core3str7patternINtB5_18MultiCharEqPatternNtB7_12IsWhitespaceENtB5_7Pattern13into_searcherCs2J74ZzqJeQl_5types
	leaq	256(%rsp), %rcx
	leaq	296(%rsp), %rdx
	movl	$40, %r8d
	callq	memcpy
	movq	40(%rsp), %r8
.Ltmp623:
	.cv_loc	254 41 1640 0
	movq	$0, 192(%rsp)
	movq	%r8, 200(%rsp)
	leaq	192(%rsp), %rcx
	addq	$16, %rcx
	leaq	256(%rsp), %rdx
	movl	$40, %r8d
	callq	memcpy
	movb	$1, 248(%rsp)
	movb	$0, 249(%rsp)
	leaq	128(%rsp), %rcx
	leaq	192(%rsp), %rdx
	movl	$64, %r8d
	callq	memcpy
.Ltmp624:
	.cv_inline_site_id 256 within 254 inlined_at 21 898 0
	.cv_loc	256 28 28 0
	leaq	64(%rsp), %rcx
	leaq	128(%rsp), %rdx
	movl	$64, %r8d
	callq	memcpy
	movq	48(%rsp), %rcx
.Ltmp625:
	.cv_loc	253 41 1183 0
	leaq	64(%rsp), %rdx
	movl	$64, %r8d
	callq	memcpy
	movq	56(%rsp), %rax
	.cv_loc	253 41 1184 0
	.seh_startepilogue
	addq	$360, %rsp
	.seh_endepilogue
	retq
.Ltmp626:
.Lfunc_end71:
	.seh_endproc

	.def	_RNvMNtCsaGRekH07FSF_4core3stre5charsCs2J74ZzqJeQl_5types;
	.scl	3;
	.type	32;
	.endef
	.section	.text,"xr",one_only,_RNvMNtCsaGRekH07FSF_4core3stre5charsCs2J74ZzqJeQl_5types,unique,73
	.p2align	4
_RNvMNtCsaGRekH07FSF_4core3stre5charsCs2J74ZzqJeQl_5types:
.Lfunc_begin72:
	.cv_func_id 257
	.cv_loc	257 41 1050 0
.seh_proc _RNvMNtCsaGRekH07FSF_4core3stre5charsCs2J74ZzqJeQl_5types
	subq	$24, %rsp
	.seh_stackalloc 24
	.seh_endprologue
	movq	%rdx, (%rsp)
	movq	%rcx, %rax
	movq	(%rsp), %rcx
	movq	%rax, 8(%rsp)
	movq	%rcx, 16(%rsp)
.Ltmp627:
	.cv_inline_site_id 258 within 257 inlined_at 41 1051 0
	.cv_inline_site_id 259 within 258 inlined_at 12 1040 0
	.cv_inline_site_id 260 within 259 inlined_at 18 102 0
	.cv_loc	260 10 961 0
	movq	%rax, %rdx
	addq	%rcx, %rdx
.Ltmp628:
	.cv_loc	257 41 1052 0
	.seh_startepilogue
	addq	$24, %rsp
	.seh_endepilogue
	retq
.Ltmp629:
.Lfunc_end72:
	.seh_endproc

	.def	_RNvMNtCsaGRekH07FSF_4core5sliceSINtNtNtB4_3mem12maybe_uninit11MaybeUninithE12split_at_mutCs2J74ZzqJeQl_5types;
	.scl	2;
	.type	32;
	.endef
	.section	.text,"xr",one_only,_RNvMNtCsaGRekH07FSF_4core5sliceSINtNtNtB4_3mem12maybe_uninit11MaybeUninithE12split_at_mutCs2J74ZzqJeQl_5types,unique,74
	.globl	_RNvMNtCsaGRekH07FSF_4core5sliceSINtNtNtB4_3mem12maybe_uninit11MaybeUninithE12split_at_mutCs2J74ZzqJeQl_5types
	.p2align	4
_RNvMNtCsaGRekH07FSF_4core5sliceSINtNtNtB4_3mem12maybe_uninit11MaybeUninithE12split_at_mutCs2J74ZzqJeQl_5types:
.Lfunc_begin73:
	.cv_func_id 261
	.cv_loc	261 12 1983 0
.seh_proc _RNvMNtCsaGRekH07FSF_4core5sliceSINtNtNtB4_3mem12maybe_uninit11MaybeUninithE12split_at_mutCs2J74ZzqJeQl_5types
	subq	$200, %rsp
	.seh_stackalloc 200
	.seh_endprologue
	movq	%r9, 48(%rsp)
	movq	%r8, 56(%rsp)
	movq	%rdx, 64(%rsp)
	movq	%rcx, 72(%rsp)
.Ltmp630:
	movq	%rcx, 80(%rsp)
	movq	240(%rsp), %rax
	movq	%rax, 88(%rsp)
.Ltmp631:
	movq	%rdx, 160(%rsp)
	movq	%r8, 168(%rsp)
	movq	%r9, 176(%rsp)
.Ltmp632:
	.cv_inline_site_id 262 within 261 inlined_at 12 1984 0
	.cv_loc	262 12 2190 0
	cmpq	%r8, %r9
.Ltmp633:
	jbe	.LBB73_2
.Ltmp634:
	.cv_loc	261 12 1986 0
	movq	88(%rsp), %r8
	leaq	anon.d3fe902d2fc543e5a5ebd510b0621c19.27(%rip), %rax
	movq	%rax, 184(%rsp)
	movq	$9, 192(%rsp)
	leaq	anon.d3fe902d2fc543e5a5ebd510b0621c19.27(%rip), %rcx
	movl	$19, %edx
	callq	_RNvNtCsaGRekH07FSF_4core9panicking9panic_fmt
.LBB73_2:
	.cv_loc	262 12 2193 0
	movq	48(%rsp), %r9
	movq	56(%rsp), %r8
	movq	64(%rsp), %rdx
.Ltmp635:
	leaq	128(%rsp), %rcx
	leaq	anon.d3fe902d2fc543e5a5ebd510b0621c19.29(%rip), %rax
	movq	%rax, 32(%rsp)
	callq	_RNvMNtCsaGRekH07FSF_4core5sliceSINtNtNtB4_3mem12maybe_uninit11MaybeUninithE22split_at_mut_uncheckedCs2J74ZzqJeQl_5types
	movq	72(%rsp), %rcx
	movq	80(%rsp), %rax
	movq	128(%rsp), %rdx
	movq	%rdx, 96(%rsp)
	movq	136(%rsp), %rdx
	movq	%rdx, 104(%rsp)
	movq	144(%rsp), %rdx
	movq	%rdx, 112(%rsp)
	movq	152(%rsp), %rdx
	movq	%rdx, 120(%rsp)
.Ltmp636:
	.cv_loc	261 12 1985 0
	movq	96(%rsp), %rdx
	movq	%rdx, (%rcx)
	movq	104(%rsp), %rdx
	movq	%rdx, 8(%rcx)
	movq	112(%rsp), %rdx
	movq	%rdx, 16(%rcx)
	movq	120(%rsp), %rdx
	movq	%rdx, 24(%rcx)
	.cv_loc	261 12 1988 0
	.seh_startepilogue
	addq	$200, %rsp
	.seh_endepilogue
	retq
.Ltmp637:
.Lfunc_end73:
	.seh_endproc

	.def	_RNvMNtCsaGRekH07FSF_4core5sliceSINtNtNtB4_3mem12maybe_uninit11MaybeUninithE22split_at_mut_uncheckedCs2J74ZzqJeQl_5types;
	.scl	2;
	.type	32;
	.endef
	.section	.text,"xr",one_only,_RNvMNtCsaGRekH07FSF_4core5sliceSINtNtNtB4_3mem12maybe_uninit11MaybeUninithE22split_at_mut_uncheckedCs2J74ZzqJeQl_5types,unique,75
	.globl	_RNvMNtCsaGRekH07FSF_4core5sliceSINtNtNtB4_3mem12maybe_uninit11MaybeUninithE22split_at_mut_uncheckedCs2J74ZzqJeQl_5types
	.p2align	4
_RNvMNtCsaGRekH07FSF_4core5sliceSINtNtNtB4_3mem12maybe_uninit11MaybeUninithE22split_at_mut_uncheckedCs2J74ZzqJeQl_5types:
.Lfunc_begin74:
	.cv_func_id 263
	.cv_loc	263 12 2089 0
.seh_proc _RNvMNtCsaGRekH07FSF_4core5sliceSINtNtNtB4_3mem12maybe_uninit11MaybeUninithE22split_at_mut_uncheckedCs2J74ZzqJeQl_5types
	subq	$200, %rsp
	.seh_stackalloc 200
	.seh_endprologue
	movq	%r9, 48(%rsp)
	movq	%r8, 56(%rsp)
	movq	%rdx, 64(%rsp)
	movq	%rcx, 72(%rsp)
	movq	%rcx, 80(%rsp)
	movq	240(%rsp), %rax
	movq	%rax, 88(%rsp)
	movq	%rdx, 128(%rsp)
	movq	%r8, 136(%rsp)
	movq	%r9, 144(%rsp)
.Ltmp638:
	.cv_loc	263 12 2090 0
	movq	%r8, 152(%rsp)
.Ltmp639:
	.cv_inline_site_id 264 within 263 inlined_at 12 2091 0
	.cv_loc	264 12 757 0
	movq	%rdx, 160(%rsp)
.Ltmp640:
	.cv_loc	263 13 78 0
	movq	48(%rsp), %rcx
	movq	88(%rsp), %r8
	movq	56(%rsp), %rdx
.Ltmp641:
	callq	_RNvNvMNtCsaGRekH07FSF_4core5sliceSp22split_at_mut_unchecked18precondition_checkCs2J74ZzqJeQl_5types
	movq	64(%rsp), %rcx
	movq	48(%rsp), %rax
	.cv_loc	263 12 2105 0
	movq	%rcx, 168(%rsp)
	movq	%rax, 176(%rsp)
	.cv_inline_site_id 265 within 263 inlined_at 12 2105 0
	.cv_loc	265 13 78 0
	movq	48(%rsp), %r9
	movq	64(%rsp), %rcx
	movq	88(%rsp), %rax
.Ltmp642:
	movl	$1, %r8d
	movq	%r8, %rdx
	movq	%rax, 32(%rsp)
	callq	_RNvNvNtNtCsaGRekH07FSF_4core5slice3raw18from_raw_parts_mut18precondition_checkCs2J74ZzqJeQl_5types
	movq	64(%rsp), %rdx
	movq	56(%rsp), %rax
	movq	48(%rsp), %rcx
	.cv_loc	265 23 194 0
	movq	%rdx, 96(%rsp)
	movq	%rcx, 104(%rsp)
.Ltmp643:
	.cv_loc	263 12 2106 0
	movq	%rdx, 184(%rsp)
	movq	%rcx, 192(%rsp)
.Ltmp644:
	.cv_inline_site_id 266 within 263 inlined_at 12 2106 0
	.cv_loc	266 10 961 0
	addq	%rcx, %rdx
	movq	%rdx, 112(%rsp)
.Ltmp645:
	.cv_loc	263 12 2106 0
	subq	%rcx, %rax
	movq	%rax, 120(%rsp)
	.cv_loc	266 23 186 0
	movq	88(%rsp), %rax
.Ltmp646:
	movq	112(%rsp), %rcx
	.cv_loc	266 13 78 0
	movq	120(%rsp), %r9
	movl	$1, %r8d
	movq	%r8, %rdx
	movq	%rax, 32(%rsp)
	callq	_RNvNvNtNtCsaGRekH07FSF_4core5slice3raw18from_raw_parts_mut18precondition_checkCs2J74ZzqJeQl_5types
	.cv_inline_site_id 267 within 266 inlined_at 23 194 0
	.cv_inline_site_id 268 within 267 inlined_at 11 1219 0
	.cv_loc	268 22 133 0
	movq	80(%rsp), %rax
	movq	72(%rsp), %rcx
.Ltmp647:
	movq	112(%rsp), %r8
	movq	120(%rsp), %rdx
.Ltmp648:
	.cv_loc	263 12 2104 0
	movq	96(%rsp), %r10
	movq	104(%rsp), %r9
	movq	%r10, (%rcx)
	movq	%r9, 8(%rcx)
	movq	%r8, 16(%rcx)
	movq	%rdx, 24(%rcx)
.Ltmp649:
	.cv_loc	263 12 2109 0
	.seh_startepilogue
	addq	$200, %rsp
	.seh_endepilogue
	retq
.Ltmp650:
.Lfunc_end74:
	.seh_endproc

	.def	_RNvMNtCsdKWIjqbzJ9K_5alloc5allocNtB2_6Global10alloc_implCs2J74ZzqJeQl_5types;
	.scl	3;
	.type	32;
	.endef
	.section	.text,"xr",one_only,_RNvMNtCsdKWIjqbzJ9K_5alloc5allocNtB2_6Global10alloc_implCs2J74ZzqJeQl_5types,unique,76
	.p2align	4
_RNvMNtCsdKWIjqbzJ9K_5alloc5allocNtB2_6Global10alloc_implCs2J74ZzqJeQl_5types:
.Lfunc_begin75:
	.cv_func_id 269
	.cv_file	43 "/rustc/1be6b13be73dc12e98e51b403add4c41a0b77759\\library\\alloc\\src\\alloc.rs" "CD8A5946B4C44338C451D1BB4C47E3109EA08AE7E3C58397E0879E4FE099572B" 3
	.cv_loc	269 43 185 0
.seh_proc _RNvMNtCsdKWIjqbzJ9K_5alloc5allocNtB2_6Global10alloc_implCs2J74ZzqJeQl_5types
	subq	$264, %rsp
	.seh_stackalloc 264
	.seh_endprologue
	movq	%r8, 48(%rsp)
	movq	%rdx, 56(%rsp)
	movb	%r9b, 71(%rsp)
	movq	%rcx, 120(%rsp)
	movq	%rdx, 128(%rsp)
	movq	%r8, 136(%rsp)
	andb	$1, %r9b
	movb	%r9b, 150(%rsp)
.Ltmp651:
	.cv_inline_site_id 270 within 269 inlined_at 43 187 0
	.cv_loc	270 9 1420 0
	movq	$0, 152(%rsp)
.Ltmp652:
	.cv_inline_site_id 271 within 270 inlined_at 9 1422 0
	.cv_loc	271 11 1218 0
	movq	$0, 160(%rsp)
.Ltmp653:
	.cv_file	44 "/rustc/1be6b13be73dc12e98e51b403add4c41a0b77759\\library\\core\\src\\alloc\\layout.rs" "97B011CD7BD3D289A19F84A47DF57753DF681C88BBD28FA3436F7A8968285E05" 3
	.cv_inline_site_id 272 within 269 inlined_at 43 186 0
	.cv_loc	272 44 140 0
	movq	%r8, 176(%rsp)
.Ltmp654:
	.cv_loc	269 43 186 0
	cmpq	$0, %r8
	jne	.LBB75_2
.Ltmp655:
	.cv_inline_site_id 273 within 270 inlined_at 44 223 0
	.cv_loc	273 9 105 0
	movq	56(%rsp), %rax
.Ltmp656:
	movq	%rax, 184(%rsp)
.Ltmp657:
	.cv_loc	271 9 408 0
	movq	%rax, 192(%rsp)
.Ltmp658:
	.cv_inline_site_id 274 within 271 inlined_at 11 1219 0
	.cv_loc	274 22 133 0
	movq	%rax, 200(%rsp)
	movq	$0, 208(%rsp)
.Ltmp659:
	.cv_loc	271 13 77 0
	jmp	.LBB75_3
.Ltmp660:
.LBB75_2:
	.cv_loc	269 43 190 0
	movb	71(%rsp), %al
.Ltmp661:
	testb	$1, %al
	jne	.LBB75_7
	jmp	.LBB75_6
.Ltmp662:
.LBB75_3:
	.cv_loc	271 13 78 0
	movq	56(%rsp), %rcx
.Ltmp663:
	leaq	anon.d3fe902d2fc543e5a5ebd510b0621c19.34(%rip), %rdx
	callq	_RNvNvMs1_NtNtCsaGRekH07FSF_4core3ptr8non_nullINtB7_7NonNullpE13new_unchecked18precondition_checkCs2J74ZzqJeQl_5types
.Ltmp664:
	.cv_loc	269 43 187 0
	movq	56(%rsp), %rax
	movq	%rax, 72(%rsp)
	movq	$0, 80(%rsp)
.LBB75_5:
	.cv_loc	269 43 195 0
	movq	72(%rsp), %rax
	movq	80(%rsp), %rdx
	.seh_startepilogue
	addq	$264, %rsp
	.seh_endepilogue
	retq
.LBB75_6:
.Ltmp665:
	.cv_inline_site_id 275 within 269 inlined_at 43 190 0
	.cv_loc	275 43 93 0
	callq	_RNvCs3pdEVMVDBly_7___rustc35___rust_no_alloc_shim_is_unstable_v2
	movq	48(%rsp), %rcx
	movq	56(%rsp), %rdx
.Ltmp666:
	.cv_loc	275 43 95 0
	callq	_RNvCs3pdEVMVDBly_7___rustc12___rust_alloc
	movq	%rax, 88(%rsp)
.Ltmp667:
	.cv_loc	269 43 190 0
	jmp	.LBB75_8
.Ltmp668:
.LBB75_7:
	.cv_loc	275 43 176 0
	callq	_RNvCs3pdEVMVDBly_7___rustc35___rust_no_alloc_shim_is_unstable_v2
	movq	48(%rsp), %rcx
	movq	56(%rsp), %rdx
.Ltmp669:
	.cv_loc	275 43 178 0
	callq	_RNvCs3pdEVMVDBly_7___rustc19___rust_alloc_zeroed
	movq	%rax, 88(%rsp)
.Ltmp670:
.LBB75_8:
	.cv_inline_site_id 276 within 269 inlined_at 43 191 0
	.cv_inline_site_id 277 within 276 inlined_at 9 271 0
	.cv_inline_site_id 278 within 277 inlined_at 10 23 0
	.cv_loc	278 24 25 0
	movq	88(%rsp), %rax
	movq	%rax, 40(%rsp)
.Ltmp671:
	.cv_inline_site_id 279 within 278 inlined_at 19 2449 0
	.cv_inline_site_id 280 within 279 inlined_at 24 38 0
	.cv_loc	280 24 159 0
	movq	88(%rsp), %rax
.Ltmp672:
	.cv_loc	276 9 271 0
	cmpq	$0, %rax
	jne	.LBB75_10
	.cv_loc	276 9 275 0
	movq	$0, 112(%rsp)
.Ltmp673:
	.cv_loc	276 1 1340 0
	movq	$0, 104(%rsp)
.Ltmp674:
	.cv_file	45 "/rustc/1be6b13be73dc12e98e51b403add4c41a0b77759\\library\\core\\src\\result.rs" "4B8826DB56F83239D45B3C510969F1F20A425447A2F678F37AA0D0BF83851ACC" 3
	.cv_inline_site_id 281 within 269 inlined_at 43 191 0
	.cv_loc	281 45 2189 0
	movq	anon.d3fe902d2fc543e5a5ebd510b0621c19.5(%rip), %rcx
	movq	anon.d3fe902d2fc543e5a5ebd510b0621c19.5+8(%rip), %rax
	movq	%rcx, 72(%rsp)
	movq	%rax, 80(%rsp)
.Ltmp675:
	.cv_loc	269 43 195 0
	jmp	.LBB75_5
.LBB75_10:
.Ltmp676:
	.cv_inline_site_id 282 within 276 inlined_at 9 273 0
	.cv_loc	282 13 77 0
	jmp	.LBB75_11
.LBB75_11:
	.cv_loc	282 9 240 0
	movq	88(%rsp), %rcx
	.cv_loc	282 13 78 0
	leaq	anon.d3fe902d2fc543e5a5ebd510b0621c19.35(%rip), %rdx
	callq	_RNvNvMs1_NtNtCsaGRekH07FSF_4core3ptr8non_nullINtB7_7NonNullpE13new_unchecked18precondition_checkCs2J74ZzqJeQl_5types
.Ltmp677:
	.cv_loc	276 9 273 0
	movq	48(%rsp), %rax
	movq	40(%rsp), %rcx
	movq	%rcx, 112(%rsp)
.Ltmp678:
	.cv_loc	276 1 1339 0
	movq	112(%rsp), %rcx
	movq	%rcx, 216(%rsp)
.Ltmp679:
	.cv_loc	276 1 1339 0
	movq	%rcx, 104(%rsp)
.Ltmp680:
	.cv_inline_site_id 283 within 269 inlined_at 43 191 0
	.cv_loc	283 45 2174 0
	movq	104(%rsp), %rcx
	movq	%rcx, 224(%rsp)
.Ltmp681:
	.cv_loc	283 45 2174 0
	movq	%rcx, 96(%rsp)
.Ltmp682:
	.cv_loc	269 43 191 0
	movq	96(%rsp), %rcx
	movq	%rcx, 32(%rsp)
	movq	%rcx, 232(%rsp)
.Ltmp683:
	.cv_inline_site_id 284 within 269 inlined_at 43 192 0
	.cv_inline_site_id 285 within 284 inlined_at 9 1422 0
	.cv_loc	285 9 408 0
	movq	%rcx, 240(%rsp)
.Ltmp684:
	.cv_inline_site_id 286 within 285 inlined_at 11 1219 0
	.cv_loc	286 22 133 0
	movq	%rcx, 248(%rsp)
	movq	%rax, 256(%rsp)
.Ltmp685:
	.cv_loc	285 13 78 0
	movq	32(%rsp), %rcx
.Ltmp686:
	leaq	anon.d3fe902d2fc543e5a5ebd510b0621c19.34(%rip), %rdx
	callq	_RNvNvMs1_NtNtCsaGRekH07FSF_4core3ptr8non_nullINtB7_7NonNullpE13new_unchecked18precondition_checkCs2J74ZzqJeQl_5types
.Ltmp687:
	.cv_loc	269 43 192 0
	movq	48(%rsp), %rax
	movq	32(%rsp), %rcx
	movq	%rcx, 72(%rsp)
	movq	%rax, 80(%rsp)
.Ltmp688:
	.cv_loc	269 43 193 0
	jmp	.LBB75_5
.Ltmp689:
.Lfunc_end75:
	.seh_endproc

	.def	_RNvMNtCsdKWIjqbzJ9K_5alloc5allocNtB2_6Global9grow_implCs2J74ZzqJeQl_5types;
	.scl	3;
	.type	32;
	.endef
	.section	.text,"xr",one_only,_RNvMNtCsdKWIjqbzJ9K_5alloc5allocNtB2_6Global9grow_implCs2J74ZzqJeQl_5types,unique,77
	.p2align	4
_RNvMNtCsdKWIjqbzJ9K_5alloc5allocNtB2_6Global9grow_implCs2J74ZzqJeQl_5types:
.Lfunc_begin76:
	.cv_func_id 287
	.cv_loc	287 43 200 0
.seh_proc _RNvMNtCsdKWIjqbzJ9K_5alloc5allocNtB2_6Global9grow_implCs2J74ZzqJeQl_5types
	subq	$488, %rsp
	.seh_stackalloc 488
	.seh_endprologue
	movq	%r9, 96(%rsp)
	movq	%r8, 104(%rsp)
	movq	%rdx, %r10
	movq	%r10, 112(%rsp)
	movq	%rcx, %r11
	movq	%r11, 120(%rsp)
	movb	544(%rsp), %al
	movb	%al, 135(%rsp)
	movq	536(%rsp), %rcx
	movq	%rcx, 136(%rsp)
	movq	528(%rsp), %rdx
	movq	%rdx, 144(%rsp)
	movq	%r11, 240(%rsp)
	movq	%r10, 248(%rsp)
	movq	%r8, 256(%rsp)
	movq	%r9, 264(%rsp)
	movq	%rdx, 272(%rsp)
	movq	%rcx, 280(%rsp)
	andb	$1, %al
	movb	%al, 290(%rsp)
.Ltmp690:
	.cv_inline_site_id 288 within 287 inlined_at 43 226 0
	.cv_loc	288 10 1432 0
	movb	$0, 298(%rsp)
.Ltmp691:
	.cv_inline_site_id 289 within 288 inlined_at 10 1437 0
	.cv_loc	289 11 697 0
	movb	$0, 299(%rsp)
.Ltmp692:
	.cv_inline_site_id 290 within 287 inlined_at 43 212 0
	.cv_loc	290 44 140 0
	movq	%r9, 304(%rsp)
.Ltmp693:
	.cv_loc	287 43 212 0
	cmpq	$0, %r9
	jne	.LBB76_2
.Ltmp694:
	.cv_loc	287 43 213 0
	movq	136(%rsp), %r8
	movq	144(%rsp), %rdx
	movq	120(%rsp), %rcx
	movb	135(%rsp), %r9b
	andb	$1, %r9b
	callq	_RNvMNtCsdKWIjqbzJ9K_5alloc5allocNtB2_6Global10alloc_implCs2J74ZzqJeQl_5types
	movq	%rax, 152(%rsp)
	movq	%rdx, 160(%rsp)
	jmp	.LBB76_3
.LBB76_2:
	.cv_loc	287 43 217 0
	movq	104(%rsp), %rax
	movq	144(%rsp), %rcx
.Ltmp695:
	cmpq	%rcx, %rax
	je	.LBB76_5
	jmp	.LBB76_4
.Ltmp696:
.LBB76_3:
	.cv_loc	287 43 243 0
	movq	152(%rsp), %rax
	movq	160(%rsp), %rdx
	.seh_startepilogue
	addq	$488, %rsp
	.seh_endepilogue
	retq
.LBB76_4:
	.cv_loc	287 43 237 0
	movq	136(%rsp), %r8
	movq	144(%rsp), %rdx
	movq	120(%rsp), %rcx
	movb	135(%rsp), %r9b
.Ltmp697:
	andb	$1, %r9b
	callq	_RNvMNtCsdKWIjqbzJ9K_5alloc5allocNtB2_6Global10alloc_implCs2J74ZzqJeQl_5types
	movq	%rax, 216(%rsp)
	movq	%rdx, 224(%rsp)
.Ltmp698:
	.cv_inline_site_id 291 within 287 inlined_at 43 237 0
	.cv_loc	291 45 2173 0
	movq	216(%rsp), %rdx
	xorl	%eax, %eax
	movl	$1, %ecx
	cmpq	$0, %rdx
	cmoveq	%rcx, %rax
	testq	$1, %rax
	jne	.LBB76_6
	jmp	.LBB76_7
.Ltmp699:
.LBB76_5:
	.cv_inline_site_id 292 within 287 inlined_at 43 218 0
	.cv_loc	292 44 140 0
	movq	136(%rsp), %rax
	movq	96(%rsp), %rcx
.Ltmp700:
	movq	%rax, 368(%rsp)
.Ltmp701:
	.cv_loc	287 43 221 0
	cmpq	%rcx, %rax
	setae	%al
	movb	%al, 95(%rsp)
	andb	$1, %al
	movb	%al, 383(%rsp)
.Ltmp702:
	.cv_inline_site_id 293 within 287 inlined_at 43 221 0
	.cv_loc	293 13 77 0
	jmp	.LBB76_12
.Ltmp703:
.LBB76_6:
	.cv_inline_site_id 294 within 287 inlined_at 43 237 0
	.cv_loc	294 45 2189 0
	movq	anon.d3fe902d2fc543e5a5ebd510b0621c19.5(%rip), %rcx
	movq	anon.d3fe902d2fc543e5a5ebd510b0621c19.5+8(%rip), %rax
	movq	%rcx, 152(%rsp)
	movq	%rax, 160(%rsp)
.Ltmp704:
	.cv_loc	287 27 1 0
	jmp	.LBB76_3
.LBB76_7:
	.cv_loc	291 45 2174 0
	movq	112(%rsp), %rcx
.Ltmp705:
	movq	216(%rsp), %rdx
	movq	224(%rsp), %rax
	movq	%rdx, 312(%rsp)
	movq	%rax, 320(%rsp)
.Ltmp706:
	.cv_loc	291 45 2174 0
	movq	%rdx, 200(%rsp)
	movq	%rax, 208(%rsp)
.Ltmp707:
	.cv_loc	287 43 237 0
	movq	200(%rsp), %rax
	movq	%rax, 72(%rsp)
	movq	208(%rsp), %rdx
	movq	%rdx, 80(%rsp)
	movq	%rax, 328(%rsp)
	movq	%rdx, 336(%rsp)
.Ltmp708:
	.cv_inline_site_id 295 within 287 inlined_at 43 238 0
	.cv_loc	295 9 408 0
	movq	%rcx, 344(%rsp)
.Ltmp709:
	.cv_loc	287 43 238 0
	movq	%rcx, 352(%rsp)
.Ltmp710:
	.cv_inline_site_id 296 within 295 inlined_at 9 1500 0
	.cv_loc	296 9 408 0
	movq	%rax, 360(%rsp)
.Ltmp711:
	.cv_loc	295 13 78 0
	movq	96(%rsp), %r10
	movq	72(%rsp), %rdx
	movq	112(%rsp), %rcx
.Ltmp712:
	movl	$1, %r9d
	leaq	anon.d3fe902d2fc543e5a5ebd510b0621c19.3(%rip), %rax
	movq	%r9, %r8
	movq	%r10, 32(%rsp)
	movq	%rax, 40(%rsp)
	callq	_RNvNvNtCsaGRekH07FSF_4core3ptr19copy_nonoverlapping18precondition_checkCs2J74ZzqJeQl_5types
	.cv_loc	295 11 547 0
	movq	96(%rsp), %r8
	movq	112(%rsp), %rdx
	movq	72(%rsp), %rcx
	shlq	$0, %r8
	callq	memcpy
	movq	96(%rsp), %rax
.Ltmp713:
	.cv_inline_site_id 297 within 287 inlined_at 43 239 0
	.cv_loc	297 43 263 0
	cmpq	$0, %rax
	jne	.LBB76_11
.Ltmp714:
.LBB76_10:
	.cv_loc	287 43 240 0
	movq	80(%rsp), %rax
	movq	72(%rsp), %rcx
	movq	%rcx, 152(%rsp)
	movq	%rax, 160(%rsp)
.Ltmp715:
	.cv_loc	287 43 241 0
	jmp	.LBB76_3
.LBB76_11:
	.cv_inline_site_id 298 within 297 inlined_at 43 272 0
	.cv_loc	298 43 115 0
	movq	104(%rsp), %r8
	movq	96(%rsp), %rdx
	movq	112(%rsp), %rcx
.Ltmp716:
	callq	_RNvCs3pdEVMVDBly_7___rustc14___rust_dealloc
.Ltmp717:
	.cv_loc	297 43 263 0
	jmp	.LBB76_10
.Ltmp718:
.LBB76_12:
	.cv_loc	293 13 78 0
	movb	95(%rsp), %cl
.Ltmp719:
	andb	$1, %cl
	leaq	anon.d3fe902d2fc543e5a5ebd510b0621c19.37(%rip), %rdx
	callq	_RNvNvNtCsaGRekH07FSF_4core4hint16assert_unchecked18precondition_checkCs2J74ZzqJeQl_5types
	movq	112(%rsp), %rcx
	movq	96(%rsp), %rdx
	movq	104(%rsp), %r8
	movq	136(%rsp), %r9
.Ltmp720:
	.cv_loc	287 43 223 0
	movq	%rcx, 384(%rsp)
.Ltmp721:
	.cv_inline_site_id 299 within 287 inlined_at 43 223 0
	.cv_loc	299 9 408 0
	movq	%rcx, 392(%rsp)
.Ltmp722:
	.cv_loc	287 43 223 0
	movq	%r9, 400(%rsp)
.Ltmp723:
	.cv_loc	299 43 135 0
	callq	_RNvCs3pdEVMVDBly_7___rustc14___rust_realloc
	movq	%rax, 168(%rsp)
.Ltmp724:
	.cv_loc	287 43 224 0
	movq	168(%rsp), %rax
	movq	%rax, 408(%rsp)
.Ltmp725:
	.cv_inline_site_id 300 within 287 inlined_at 43 224 0
	.cv_inline_site_id 301 within 300 inlined_at 9 271 0
	.cv_inline_site_id 302 within 301 inlined_at 10 23 0
	.cv_loc	302 24 25 0
	movq	168(%rsp), %rax
	movq	%rax, 232(%rsp)
.Ltmp726:
	.cv_inline_site_id 303 within 302 inlined_at 19 2449 0
	.cv_inline_site_id 304 within 303 inlined_at 24 38 0
	.cv_loc	304 24 159 0
	movq	168(%rsp), %rax
.Ltmp727:
	.cv_loc	300 9 271 0
	cmpq	$0, %rax
	jne	.LBB76_14
.Ltmp728:
	.cv_loc	300 9 275 0
	movq	$0, 192(%rsp)
.Ltmp729:
	.cv_loc	300 1 1340 0
	movq	$0, 184(%rsp)
.Ltmp730:
	.cv_inline_site_id 305 within 287 inlined_at 43 224 0
	.cv_loc	305 45 2189 0
	movq	anon.d3fe902d2fc543e5a5ebd510b0621c19.5(%rip), %rcx
	movq	anon.d3fe902d2fc543e5a5ebd510b0621c19.5+8(%rip), %rax
	movq	%rcx, 152(%rsp)
	movq	%rax, 160(%rsp)
.Ltmp731:
	.cv_loc	287 27 1 0
	jmp	.LBB76_3
.LBB76_14:
.Ltmp732:
	.cv_inline_site_id 306 within 300 inlined_at 9 273 0
	.cv_loc	306 13 77 0
	jmp	.LBB76_15
.LBB76_15:
	.cv_loc	306 9 240 0
	movq	168(%rsp), %rcx
	.cv_loc	306 13 78 0
	leaq	anon.d3fe902d2fc543e5a5ebd510b0621c19.35(%rip), %rdx
	callq	_RNvNvMs1_NtNtCsaGRekH07FSF_4core3ptr8non_nullINtB7_7NonNullpE13new_unchecked18precondition_checkCs2J74ZzqJeQl_5types
	.cv_loc	306 9 242 0
	movb	135(%rsp), %al
	movq	232(%rsp), %rcx
.Ltmp733:
	.cv_loc	300 9 273 0
	movq	%rcx, 192(%rsp)
.Ltmp734:
	.cv_loc	300 1 1339 0
	movq	192(%rsp), %rcx
	movq	%rcx, 416(%rsp)
.Ltmp735:
	.cv_loc	300 1 1339 0
	movq	%rcx, 184(%rsp)
.Ltmp736:
	.cv_inline_site_id 307 within 287 inlined_at 43 224 0
	.cv_loc	307 45 2174 0
	movq	184(%rsp), %rcx
	movq	%rcx, 424(%rsp)
.Ltmp737:
	.cv_loc	307 45 2174 0
	movq	%rcx, 176(%rsp)
.Ltmp738:
	.cv_loc	287 43 224 0
	movq	176(%rsp), %rcx
	movq	%rcx, 64(%rsp)
	movq	%rcx, 432(%rsp)
.Ltmp739:
	.cv_loc	287 43 225 0
	testb	$1, %al
	jne	.LBB76_18
.LBB76_17:
	.cv_inline_site_id 308 within 287 inlined_at 43 228 0
	.cv_inline_site_id 309 within 308 inlined_at 9 1422 0
	.cv_loc	309 9 408 0
	movq	136(%rsp), %rax
	movq	64(%rsp), %rcx
.Ltmp740:
	movq	%rcx, 464(%rsp)
.Ltmp741:
	.cv_inline_site_id 310 within 309 inlined_at 11 1219 0
	.cv_loc	310 22 133 0
	movq	%rcx, 472(%rsp)
	movq	%rax, 480(%rsp)
.Ltmp742:
	.cv_loc	309 13 77 0
	jmp	.LBB76_21
.Ltmp743:
.LBB76_18:
	.cv_loc	287 43 226 0
	movq	96(%rsp), %rcx
	movq	136(%rsp), %rax
	movq	168(%rsp), %rdx
	movq	%rdx, 440(%rsp)
.Ltmp744:
	.cv_loc	288 10 961 0
	movq	%rcx, %rdx
	addq	168(%rsp), %rdx
	movq	%rdx, 48(%rsp)
	movq	%rdx, 448(%rsp)
.Ltmp745:
	.cv_loc	287 43 226 0
	subq	%rcx, %rax
	movq	%rax, 56(%rsp)
	movq	%rax, 456(%rsp)
	.cv_loc	289 11 706 0
	movq	48(%rsp), %rcx
	movq	56(%rsp), %rax
.Ltmp746:
	cmpq	$0, %rax
	sete	%r8b
	.cv_loc	289 13 78 0
	andb	$1, %r8b
	leaq	anon.d3fe902d2fc543e5a5ebd510b0621c19.38(%rip), %r9
	movl	$1, %edx
	callq	_RNvNvNtCsaGRekH07FSF_4core3ptr11write_bytes18precondition_checkCs2J74ZzqJeQl_5types
	.cv_loc	289 11 709 0
	movq	48(%rsp), %rcx
	movq	56(%rsp), %r8
	shlq	$0, %r8
	xorl	%edx, %edx
	callq	memset
.Ltmp747:
	.cv_loc	287 43 225 0
	jmp	.LBB76_17
.LBB76_21:
	.cv_loc	309 13 78 0
	movq	64(%rsp), %rcx
.Ltmp748:
	leaq	anon.d3fe902d2fc543e5a5ebd510b0621c19.34(%rip), %rdx
	callq	_RNvNvMs1_NtNtCsaGRekH07FSF_4core3ptr8non_nullINtB7_7NonNullpE13new_unchecked18precondition_checkCs2J74ZzqJeQl_5types
.Ltmp749:
	.cv_loc	287 43 228 0
	movq	136(%rsp), %rax
	movq	64(%rsp), %rcx
	movq	%rcx, 152(%rsp)
	movq	%rax, 160(%rsp)
.Ltmp750:
	.cv_loc	287 43 229 0
	jmp	.LBB76_3
.Ltmp751:
.Lfunc_end76:
	.seh_endproc

	.def	_RNvMNtCsdKWIjqbzJ9K_5alloc6stringNtB2_6String3newCs2J74ZzqJeQl_5types;
	.scl	3;
	.type	32;
	.endef
	.section	.text,"xr",one_only,_RNvMNtCsdKWIjqbzJ9K_5alloc6stringNtB2_6String3newCs2J74ZzqJeQl_5types,unique,78
	.p2align	4
_RNvMNtCsdKWIjqbzJ9K_5alloc6stringNtB2_6String3newCs2J74ZzqJeQl_5types:
.Lfunc_begin77:
	.cv_func_id 311
	.cv_loc	311 32 437 0
.seh_proc _RNvMNtCsdKWIjqbzJ9K_5alloc6stringNtB2_6String3newCs2J74ZzqJeQl_5types
	subq	$24, %rsp
	.seh_stackalloc 24
	.seh_endprologue
	movq	%rcx, %rax
.Ltmp752:
	.cv_inline_site_id 312 within 311 inlined_at 32 438 0
	.cv_loc	312 5 464 0
	movq	$0, (%rsp)
	movl	$1, %edx
	movq	%rdx, 8(%rsp)
	movq	$0, 16(%rsp)
.Ltmp753:
	.cv_loc	311 32 438 0
	movq	(%rsp), %rdx
	movq	%rdx, (%rcx)
	movq	8(%rsp), %rdx
	movq	%rdx, 8(%rcx)
	movq	16(%rsp), %rdx
	movq	%rdx, 16(%rcx)
	.cv_loc	311 32 439 0
	.seh_startepilogue
	addq	$24, %rsp
	.seh_endepilogue
	retq
.Ltmp754:
.Lfunc_end77:
	.seh_endproc

	.def	_RNvMNtCsdKWIjqbzJ9K_5alloc6stringNtB2_6String4pushCs2J74ZzqJeQl_5types;
	.scl	3;
	.type	32;
	.endef
	.section	.text,"xr",one_only,_RNvMNtCsdKWIjqbzJ9K_5alloc6stringNtB2_6String4pushCs2J74ZzqJeQl_5types,unique,79
	.p2align	4
_RNvMNtCsdKWIjqbzJ9K_5alloc6stringNtB2_6String4pushCs2J74ZzqJeQl_5types:
.Lfunc_begin78:
	.cv_func_id 313
	.cv_loc	313 32 1389 0
.seh_proc _RNvMNtCsdKWIjqbzJ9K_5alloc6stringNtB2_6String4pushCs2J74ZzqJeQl_5types
	subq	$152, %rsp
	.seh_stackalloc 152
	.seh_endprologue
	movl	%edx, 44(%rsp)
	movq	%rcx, 48(%rsp)
	movq	%rcx, 72(%rsp)
	movl	%edx, 84(%rsp)
.Ltmp755:
	.cv_inline_site_id 314 within 313 inlined_at 32 1397 0
	.cv_inline_site_id 315 within 314 inlined_at 5 1944 0
	.cv_inline_site_id 316 within 315 inlined_at 5 1276 0
	.cv_inline_site_id 317 within 316 inlined_at 6 295 0
	.cv_loc	317 6 508 0
	movq	$1, 88(%rsp)
.Ltmp756:
	.cv_inline_site_id 318 within 313 inlined_at 32 1390 0
	.cv_inline_site_id 319 within 318 inlined_at 32 1834 0
	.cv_loc	319 5 2856 0
	movq	16(%rcx), %rax
	movq	%rax, 56(%rsp)
	movq	%rax, 96(%rsp)
.Ltmp757:
	.cv_file	46 "/rustc/1be6b13be73dc12e98e51b403add4c41a0b77759\\library\\core\\src\\char\\methods.rs" "03D1EB42DE17D9078D927ABBBC0DCFE4A1EA3FEC3473531BD23C86BC097AAA43" 3
	.cv_inline_site_id 320 within 313 inlined_at 32 1391 0
	.cv_loc	320 46 646 0
	movl	%edx, 108(%rsp)
.Ltmp758:
	.cv_inline_site_id 321 within 320 inlined_at 46 646 0
	.cv_loc	321 46 1844 0
	cmpl	$128, %edx
	jb	.LBB78_2
	.cv_loc	321 46 1845 0
	movl	44(%rsp), %eax
	cmpl	$2048, %eax
	jb	.LBB78_4
	jmp	.LBB78_3
.LBB78_2:
	.cv_loc	321 46 1844 0
	movq	$1, 64(%rsp)
	jmp	.LBB78_7
.LBB78_3:
	.cv_loc	321 46 1846 0
	movl	44(%rsp), %eax
	cmpl	$65536, %eax
	jb	.LBB78_6
	jmp	.LBB78_5
.LBB78_4:
	.cv_loc	321 46 1845 0
	movq	$2, 64(%rsp)
	jmp	.LBB78_7
.LBB78_5:
	.cv_loc	321 46 1847 0
	movq	$4, 64(%rsp)
	jmp	.LBB78_7
.LBB78_6:
	.cv_loc	321 46 1846 0
	movq	$3, 64(%rsp)
.Ltmp759:
.LBB78_7:
	.cv_loc	313 32 1392 0
	movq	48(%rsp), %rcx
.Ltmp760:
	movq	64(%rsp), %rdx
	movq	%rdx, 112(%rsp)
.Ltmp761:
	.cv_inline_site_id 322 within 313 inlined_at 32 1392 0
	.cv_loc	322 32 1197 0
	callq	_RNvMs_NtCsdKWIjqbzJ9K_5alloc3vecINtB4_3VechE7reserveCs2J74ZzqJeQl_5types
	movq	48(%rsp), %rax
	movl	44(%rsp), %ecx
.Ltmp762:
	.cv_inline_site_id 323 within 313 inlined_at 32 1396 0
	.cv_inline_site_id 324 within 323 inlined_at 5 1779 0
	.cv_inline_site_id 325 within 324 inlined_at 6 282 0
	.cv_inline_site_id 326 within 325 inlined_at 6 499 0
	.cv_loc	326 6 504 0
	movq	8(%rax), %rdx
.Ltmp763:
	.cv_loc	326 9 408 0
	movq	%rdx, 120(%rsp)
.Ltmp764:
	.cv_inline_site_id 327 within 323 inlined_at 32 1834 0
	.cv_loc	327 5 2856 0
	movq	16(%rax), %rax
	movq	%rax, 128(%rsp)
.Ltmp765:
	.cv_loc	323 10 961 0
	addq	%rax, %rdx
.Ltmp766:
	.cv_loc	313 32 1396 0
	callq	_RNvNtNtCsaGRekH07FSF_4core4char7methods25encode_utf8_raw_uncheckedCs2J74ZzqJeQl_5types
	movq	56(%rsp), %rax
	.cv_loc	313 32 1397 0
	addq	64(%rsp), %rax
	movq	%rax, 32(%rsp)
	movq	%rax, 136(%rsp)
.Ltmp767:
	.cv_loc	317 6 509 0
	movq	32(%rsp), %rcx
	movq	48(%rsp), %rax
.Ltmp768:
	movq	(%rax), %rdx
	movq	%rdx, 144(%rsp)
.Ltmp769:
	.cv_loc	314 5 1941 0
	leaq	anon.d3fe902d2fc543e5a5ebd510b0621c19.1(%rip), %r8
	callq	_RNvNvMs_NtCsdKWIjqbzJ9K_5alloc3vecINtB6_3VecppE7set_len18precondition_checkCs2J74ZzqJeQl_5types
.Ltmp770:
	.cv_loc	314 5 1947 0
	movq	48(%rsp), %rax
	movq	32(%rsp), %rcx
	movq	%rcx, 16(%rax)
.Ltmp771:
	.cv_loc	313 32 1399 0
	.seh_startepilogue
	addq	$152, %rsp
	.seh_endepilogue
	retq
.Ltmp772:
.Lfunc_end78:
	.seh_endproc

	.def	_RNvMNtCsdKWIjqbzJ9K_5alloc6stringNtB2_6String6as_strCs2J74ZzqJeQl_5types;
	.scl	3;
	.type	32;
	.endef
	.section	.text,"xr",one_only,_RNvMNtCsdKWIjqbzJ9K_5alloc6stringNtB2_6String6as_strCs2J74ZzqJeQl_5types,unique,80
	.p2align	4
_RNvMNtCsdKWIjqbzJ9K_5alloc6stringNtB2_6String6as_strCs2J74ZzqJeQl_5types:
.Lfunc_begin79:
	.cv_func_id 328
	.cv_loc	328 32 1051 0
.seh_proc _RNvMNtCsdKWIjqbzJ9K_5alloc6stringNtB2_6String6as_strCs2J74ZzqJeQl_5types
	subq	$104, %rsp
	.seh_stackalloc 104
	.seh_endprologue
	movq	%rcx, 64(%rsp)
.Ltmp773:
	.cv_inline_site_id 329 within 328 inlined_at 32 1054 0
	.cv_inline_site_id 330 within 329 inlined_at 5 1599 0
	.cv_inline_site_id 331 within 330 inlined_at 5 1695 0
	.cv_inline_site_id 332 within 331 inlined_at 6 282 0
	.cv_inline_site_id 333 within 332 inlined_at 6 499 0
	.cv_loc	333 6 504 0
	movq	8(%rcx), %rax
	movq	%rax, 48(%rsp)
.Ltmp774:
	.cv_loc	330 5 1695 0
	movq	%rax, 72(%rsp)
.Ltmp775:
	.cv_loc	329 5 1599 0
	movq	16(%rcx), %rax
	movq	%rax, 56(%rsp)
	movq	%rax, 80(%rsp)
.Ltmp776:
	.cv_loc	330 13 78 0
	movq	56(%rsp), %r9
	movq	48(%rsp), %rcx
.Ltmp777:
	movl	$1, %r8d
	leaq	anon.d3fe902d2fc543e5a5ebd510b0621c19.39(%rip), %rax
	movq	%r8, %rdx
	movq	%rax, 32(%rsp)
	callq	_RNvNvNtNtCsaGRekH07FSF_4core5slice3raw14from_raw_parts18precondition_checkCs2J74ZzqJeQl_5types
	.cv_inline_site_id 334 within 330 inlined_at 23 139 0
	.cv_inline_site_id 335 within 334 inlined_at 11 1173 0
	.cv_loc	335 22 120 0
	movq	56(%rsp), %rdx
	movq	48(%rsp), %rax
.Ltmp778:
	movq	%rax, 88(%rsp)
	movq	%rdx, 96(%rsp)
.Ltmp779:
	.cv_loc	328 32 1055 0
	.seh_startepilogue
	addq	$104, %rsp
	.seh_endepilogue
	retq
.Ltmp780:
.Lfunc_end79:
	.seh_endproc

	.def	_RNvMNtNtCsaGRekH07FSF_4core3ptr9const_ptrPu13is_aligned_toCs2J74ZzqJeQl_5types;
	.scl	2;
	.type	32;
	.endef
	.section	.text,"xr",one_only,_RNvMNtNtCsaGRekH07FSF_4core3ptr9const_ptrPu13is_aligned_toCs2J74ZzqJeQl_5types,unique,81
	.globl	_RNvMNtNtCsaGRekH07FSF_4core3ptr9const_ptrPu13is_aligned_toCs2J74ZzqJeQl_5types
	.p2align	4
_RNvMNtNtCsaGRekH07FSF_4core3ptr9const_ptrPu13is_aligned_toCs2J74ZzqJeQl_5types:
.Lfunc_begin80:
	.cv_func_id 336
	.cv_loc	336 24 1372 0
.seh_proc _RNvMNtNtCsaGRekH07FSF_4core3ptr9const_ptrPu13is_aligned_toCs2J74ZzqJeQl_5types
	subq	$88, %rsp
	.seh_stackalloc 88
	.seh_endprologue
	movq	%rdx, 32(%rsp)
	movq	%rcx, %rax
	movq	32(%rsp), %rcx
	movq	%rax, 40(%rsp)
	movq	%rax, 48(%rsp)
	movq	%rcx, 56(%rsp)
.Ltmp781:
	.cv_inline_site_id 337 within 336 inlined_at 24 1373 0
	.cv_inline_site_id 338 within 337 inlined_at 7 3591 0
	.cv_loc	338 7 82 0
	movq	%rcx, %rax
	shrq	%rax
	movabsq	$6148914691236517205, %rdx
	andq	%rdx, %rax
	subq	%rax, %rcx
	movabsq	$3689348814741910323, %rdx
	movq	%rcx, %rax
	andq	%rdx, %rax
	shrq	$2, %rcx
	andq	%rdx, %rcx
	addq	%rcx, %rax
	movq	%rax, %rcx
	shrq	$4, %rcx
	addq	%rcx, %rax
	movabsq	$1085102592571150095, %rcx
	andq	%rcx, %rax
	movabsq	$72340172838076673, %rcx
	imulq	%rcx, %rax
	shrq	$56, %rax
	movl	%eax, 68(%rsp)
.Ltmp782:
	.cv_loc	336 24 1373 0
	cmpl	$1, 68(%rsp)
	jne	.LBB80_2
	.cv_loc	336 24 1377 0
	movq	40(%rsp), %rax
	movq	32(%rsp), %rcx
	subq	$1, %rcx
	andq	%rcx, %rax
	cmpq	$0, %rax
	sete	%al
	.cv_loc	336 24 1378 0
	andb	$1, %al
	.seh_startepilogue
	addq	$88, %rsp
	.seh_endepilogue
	retq
.LBB80_2:
	.cv_loc	336 24 1374 0
	leaq	anon.d3fe902d2fc543e5a5ebd510b0621c19.40(%rip), %rax
	movq	%rax, 72(%rsp)
	movq	$42, 80(%rsp)
	leaq	anon.d3fe902d2fc543e5a5ebd510b0621c19.40(%rip), %rcx
	movl	$85, %edx
	leaq	anon.d3fe902d2fc543e5a5ebd510b0621c19.42(%rip), %r8
	callq	_RNvNtCsaGRekH07FSF_4core9panicking9panic_fmt
	int3
.Ltmp783:
.Lfunc_end80:
	.seh_endproc

	.def	_RNvMNtNtCsaGRekH07FSF_4core4char7methodsc12to_uppercaseCs2J74ZzqJeQl_5types;
	.scl	3;
	.type	32;
	.endef
	.section	.text,"xr",one_only,_RNvMNtNtCsaGRekH07FSF_4core4char7methodsc12to_uppercaseCs2J74ZzqJeQl_5types,unique,82
	.p2align	4
_RNvMNtNtCsaGRekH07FSF_4core4char7methodsc12to_uppercaseCs2J74ZzqJeQl_5types:
.Lfunc_begin81:
	.cv_func_id 339
	.cv_loc	339 46 1209 0
.seh_proc _RNvMNtNtCsaGRekH07FSF_4core4char7methodsc12to_uppercaseCs2J74ZzqJeQl_5types
	subq	$104, %rsp
	.seh_stackalloc 104
	.seh_endprologue
	movq	%rcx, 40(%rsp)
	movq	%rcx, 48(%rsp)
	movl	%edx, 100(%rsp)
.Ltmp784:
	.cv_loc	339 46 1210 0
	leaq	88(%rsp), %rcx
	callq	_RNvNtNtNtCsaGRekH07FSF_4core7unicode12unicode_data11conversions8to_upper
	leaq	56(%rsp), %rcx
	leaq	88(%rsp), %rdx
	callq	_RNvMsd_NtCsaGRekH07FSF_4core4charNtB5_15CaseMappingIter3newCs2J74ZzqJeQl_5types
	movq	40(%rsp), %rcx
	movq	48(%rsp), %rax
	movq	56(%rsp), %rdx
	movq	%rdx, (%rcx)
	movq	64(%rsp), %rdx
	movq	%rdx, 8(%rcx)
	movq	72(%rsp), %rdx
	movq	%rdx, 16(%rcx)
	movq	80(%rsp), %rdx
	movq	%rdx, 24(%rcx)
	.cv_loc	339 46 1211 0
	.seh_startepilogue
	addq	$104, %rsp
	.seh_endepilogue
	retq
.Ltmp785:
.Lfunc_end81:
	.seh_endproc

	.def	_RNvMNtNtCsaGRekH07FSF_4core4char7methodsc13is_whitespaceCs2J74ZzqJeQl_5types;
	.scl	3;
	.type	32;
	.endef
	.section	.text,"xr",one_only,_RNvMNtNtCsaGRekH07FSF_4core4char7methodsc13is_whitespaceCs2J74ZzqJeQl_5types,unique,83
	.p2align	4
_RNvMNtNtCsaGRekH07FSF_4core4char7methodsc13is_whitespaceCs2J74ZzqJeQl_5types:
.Lfunc_begin82:
	.cv_func_id 340
	.cv_loc	340 46 893 0
.seh_proc _RNvMNtNtCsaGRekH07FSF_4core4char7methodsc13is_whitespaceCs2J74ZzqJeQl_5types
	subq	$56, %rsp
	.seh_stackalloc 56
	.seh_endprologue
	movl	%ecx, 44(%rsp)
	movl	%ecx, 52(%rsp)
.Ltmp786:
	.cv_loc	340 46 894 0
	cmpl	$32, %ecx
	jne	.LBB82_2
.LBB82_1:
	.cv_loc	340 46 895 0
	movb	$1, 51(%rsp)
	jmp	.LBB82_8
.LBB82_2:
	movl	44(%rsp), %ecx
	movl	$9, %eax
	cmpl	%ecx, %eax
	jbe	.LBB82_4
.LBB82_3:
	.cv_loc	340 46 896 0
	movl	44(%rsp), %eax
.Ltmp787:
	cmpl	$127, %eax
	ja	.LBB82_6
	jmp	.LBB82_5
.Ltmp788:
.LBB82_4:
	.cv_loc	340 46 895 0
	movl	44(%rsp), %eax
	cmpl	$13, %eax
	jbe	.LBB82_1
	jmp	.LBB82_3
.LBB82_5:
.Ltmp789:
	.cv_loc	340 46 896 0
	movb	$0, 51(%rsp)
	jmp	.LBB82_7
.LBB82_6:
	movl	44(%rsp), %ecx
	callq	_RNvNtNtNtCsaGRekH07FSF_4core7unicode12unicode_data11white_space6lookupCs2J74ZzqJeQl_5types
	andb	$1, %al
	movb	%al, 51(%rsp)
.Ltmp790:
.LBB82_7:
	.cv_loc	340 46 896 0
	jmp	.LBB82_8
.LBB82_8:
	.cv_loc	340 46 898 0
	movb	51(%rsp), %al
	andb	$1, %al
	.seh_startepilogue
	addq	$56, %rsp
	.seh_endepilogue
	retq
.Ltmp791:
.Lfunc_end82:
	.seh_endproc

	.def	_RNvMNtNtCsaGRekH07FSF_4core4char7methodsc15is_alphanumericCs2J74ZzqJeQl_5types;
	.scl	3;
	.type	32;
	.endef
	.section	.text,"xr",one_only,_RNvMNtNtCsaGRekH07FSF_4core4char7methodsc15is_alphanumericCs2J74ZzqJeQl_5types,unique,84
	.p2align	4
_RNvMNtNtCsaGRekH07FSF_4core4char7methodsc15is_alphanumericCs2J74ZzqJeQl_5types:
.Lfunc_begin83:
	.cv_func_id 341
	.cv_loc	341 46 922 0
.seh_proc _RNvMNtNtCsaGRekH07FSF_4core4char7methodsc15is_alphanumericCs2J74ZzqJeQl_5types
	subq	$56, %rsp
	.seh_stackalloc 56
	.seh_endprologue
	movl	%ecx, 44(%rsp)
	movl	%ecx, 52(%rsp)
.Ltmp792:
	.cv_inline_site_id 342 within 341 inlined_at 46 923 0
	.cv_loc	342 46 1230 0
	cmpl	$127, %ecx
.Ltmp793:
	.cv_loc	341 46 923 0
	jbe	.LBB83_2
.Ltmp794:
	.cv_file	47 "/rustc/1be6b13be73dc12e98e51b403add4c41a0b77759\\library\\core\\src\\unicode\\unicode_data.rs" "CB48F4D2E308778EFD6F4B0324D212070D5836D528987824DE85A21ED9D0E5FF" 3
	.cv_inline_site_id 343 within 341 inlined_at 46 926 0
	.cv_loc	343 47 238 0
	movl	44(%rsp), %eax
.Ltmp795:
	cmpl	$170, %eax
	jae	.LBB83_4
	jmp	.LBB83_3
.Ltmp796:
.LBB83_2:
	.cv_inline_site_id 344 within 341 inlined_at 46 924 0
	.cv_loc	344 46 1553 0
	movl	44(%rsp), %ecx
.Ltmp797:
	movl	$48, %eax
	cmpl	%ecx, %eax
	jbe	.LBB83_13
	jmp	.LBB83_12
.Ltmp798:
.LBB83_3:
	.cv_loc	341 46 926 0
	jmp	.LBB83_5
.LBB83_4:
	.cv_loc	343 47 238 0
	movl	44(%rsp), %ecx
.Ltmp799:
	callq	_RNvNtNtNtCsaGRekH07FSF_4core7unicode12unicode_data10alphabetic11lookup_slow
.Ltmp800:
	.cv_loc	341 46 926 0
	testb	$1, %al
	jne	.LBB83_6
.LBB83_5:
	.cv_loc	343 47 621 0
	movl	44(%rsp), %eax
.Ltmp801:
	cmpl	$178, %eax
	jae	.LBB83_8
	jmp	.LBB83_7
.Ltmp802:
.LBB83_6:
	.cv_loc	341 46 926 0
	movb	$1, 48(%rsp)
	jmp	.LBB83_10
.LBB83_7:
.Ltmp803:
	.cv_loc	343 47 621 0
	movb	$0, 48(%rsp)
	jmp	.LBB83_9
.LBB83_8:
	movl	44(%rsp), %ecx
	callq	_RNvNtNtNtCsaGRekH07FSF_4core7unicode12unicode_data1n11lookup_slow
	andb	$1, %al
	movb	%al, 48(%rsp)
.Ltmp804:
.LBB83_9:
	.cv_loc	341 46 926 0
	jmp	.LBB83_10
.LBB83_10:
	.cv_loc	341 46 923 0
	jmp	.LBB83_11
.LBB83_11:
	.cv_loc	341 46 928 0
	movb	48(%rsp), %al
	andb	$1, %al
	.seh_startepilogue
	addq	$56, %rsp
	.seh_endepilogue
	retq
.LBB83_12:
.Ltmp805:
	.cv_file	48 "/rustc/1be6b13be73dc12e98e51b403add4c41a0b77759\\library\\core\\src\\macros\\mod.rs" "36B0185BDEE706D1A219E9EA3922C1319EC1B872733B61844E1A7799901540D9" 3
	.cv_loc	344 48 439 0
	movb	$0, 49(%rsp)
	jmp	.LBB83_14
.LBB83_13:
	.cv_loc	344 46 1553 0
	movl	44(%rsp), %eax
	cmpl	$57, %eax
	setbe	%al
	andb	$1, %al
	movb	%al, 49(%rsp)
.LBB83_14:
	movl	44(%rsp), %ecx
	movl	$65, %eax
	cmpl	%ecx, %eax
	jbe	.LBB83_16
	.cv_loc	344 48 439 0
	movb	$0, 50(%rsp)
	jmp	.LBB83_17
.LBB83_16:
	.cv_loc	344 46 1553 0
	movl	44(%rsp), %eax
	cmpl	$90, %eax
	setbe	%al
	andb	$1, %al
	movb	%al, 50(%rsp)
.LBB83_17:
	movl	44(%rsp), %ecx
	movb	49(%rsp), %al
	movb	50(%rsp), %dl
	orb	%dl, %al
	movb	%al, 43(%rsp)
	movl	$97, %eax
	cmpl	%ecx, %eax
	jbe	.LBB83_19
	.cv_loc	344 48 439 0
	movb	$0, 51(%rsp)
	jmp	.LBB83_20
.LBB83_19:
	.cv_loc	344 46 1553 0
	movl	44(%rsp), %eax
	cmpl	$122, %eax
	setbe	%al
	andb	$1, %al
	movb	%al, 51(%rsp)
.LBB83_20:
	movb	43(%rsp), %al
	movb	51(%rsp), %cl
	orb	%cl, %al
	andb	$1, %al
	movb	%al, 48(%rsp)
.Ltmp806:
	.cv_loc	341 46 923 0
	jmp	.LBB83_11
.Ltmp807:
.Lfunc_end83:
	.seh_endproc

	.def	_RNvMNtNtCsaGRekH07FSF_4core5alloc6layoutNtB2_6Layout6repeatCs2J74ZzqJeQl_5types;
	.scl	3;
	.type	32;
	.endef
	.section	.text,"xr",one_only,_RNvMNtNtCsaGRekH07FSF_4core5alloc6layoutNtB2_6Layout6repeatCs2J74ZzqJeQl_5types,unique,85
	.p2align	4
_RNvMNtNtCsaGRekH07FSF_4core5alloc6layoutNtB2_6Layout6repeatCs2J74ZzqJeQl_5types:
.Lfunc_begin84:
	.cv_func_id 345
	.cv_loc	345 44 359 0
.seh_proc _RNvMNtNtCsaGRekH07FSF_4core5alloc6layoutNtB2_6Layout6repeatCs2J74ZzqJeQl_5types
	subq	$232, %rsp
	.seh_stackalloc 232
	.seh_endprologue
	movq	%r8, 48(%rsp)
	movq	%rcx, 56(%rsp)
	movq	%rcx, 64(%rsp)
	movq	%rdx, 128(%rsp)
	movq	%r8, 136(%rsp)
.Ltmp808:
	.cv_inline_site_id 346 within 345 inlined_at 44 360 0
	.cv_loc	346 44 324 0
	movq	(%rdx), %rcx
	movq	%rcx, 72(%rsp)
	movq	%rcx, 144(%rsp)
.Ltmp809:
	.cv_file	49 "/rustc/1be6b13be73dc12e98e51b403add4c41a0b77759\\library\\core\\src\\ptr\\alignment.rs" "D484D2379EA9DFDF3F3610AD9612DB5CD732A5E1BFC9496D33BE0E102B7A2244" 3
	.cv_inline_site_id 347 within 346 inlined_at 44 324 0
	.cv_inline_site_id 348 within 347 inlined_at 44 304 0
	.cv_loc	348 49 95 0
	movq	%rcx, 152(%rsp)
.Ltmp810:
	.cv_loc	347 44 304 0
	subq	$1, %rcx
	.cv_loc	347 44 305 0
	movq	%rcx, %rax
	addq	8(%rdx), %rax
	xorq	$-1, %rcx
	andq	%rcx, %rax
	movq	%rax, 80(%rsp)
	movq	%rax, 160(%rsp)
.Ltmp811:
	.cv_inline_site_id 349 within 346 inlined_at 44 327 0
	.cv_loc	349 13 78 0
	movq	72(%rsp), %rdx
	movq	80(%rsp), %rcx
.Ltmp812:
	leaq	anon.d3fe902d2fc543e5a5ebd510b0621c19.44(%rip), %r8
	callq	_RNvNvMNtNtCsaGRekH07FSF_4core5alloc6layoutNtB4_6Layout25from_size_align_unchecked18precondition_checkCs2J74ZzqJeQl_5types
	.cv_loc	349 44 131 0
	movq	48(%rsp), %rcx
	movq	80(%rsp), %rax
	movq	72(%rsp), %rdx
	movq	%rdx, 168(%rsp)
	movq	%rdx, 176(%rsp)
	movq	%rax, 184(%rsp)
.Ltmp813:
	.cv_inline_site_id 350 within 345 inlined_at 44 361 0
	.cv_inline_site_id 351 within 350 inlined_at 44 448 0
	.cv_inline_site_id 352 within 351 inlined_at 7 1046 0
	.cv_loc	352 7 2882 0
	mulq	%rcx
	movq	%rax, %rcx
	movq	%rcx, 40(%rsp)
	seto	%al
	movb	%al, %dl
	andb	$1, %dl
	movb	%dl, 199(%rsp)
	.cv_loc	352 7 2883 0
	movq	%rcx, 200(%rsp)
.Ltmp814:
	.cv_inline_site_id 353 within 351 inlined_at 7 1047 0
	.cv_loc	353 19 457 0
	testb	$1, %al
	jne	.LBB84_4
.Ltmp815:
	.cv_inline_site_id 354 within 350 inlined_at 44 450 0
	.cv_loc	354 44 101 0
	movq	40(%rsp), %rax
	movq	72(%rsp), %rdx
.Ltmp816:
	movq	%rdx, 208(%rsp)
.Ltmp817:
	.cv_inline_site_id 355 within 354 inlined_at 44 101 0
	.cv_loc	355 44 95 0
	movabsq	$-9223372036854775808, %rcx
	subq	%rdx, %rcx
.Ltmp818:
	.cv_loc	354 44 101 0
	cmpq	%rcx, %rax
	ja	.LBB84_6
	jmp	.LBB84_5
.Ltmp819:
.LBB84_4:
	.cv_loc	345 44 361 0
	jmp	.LBB84_8
.LBB84_5:
	.cv_loc	354 44 106 0
	movq	56(%rsp), %rax
	movq	80(%rsp), %rcx
	movq	40(%rsp), %rdx
	movq	72(%rsp), %r8
.Ltmp820:
	movq	%r8, 88(%rsp)
	movq	%rdx, 96(%rsp)
.Ltmp821:
	.cv_loc	345 44 361 0
	movq	88(%rsp), %r8
	movq	96(%rsp), %rdx
	movq	%r8, 216(%rsp)
	movq	%rdx, 224(%rsp)
.Ltmp822:
	.cv_loc	345 44 362 0
	movq	%r8, 104(%rsp)
	movq	%rdx, 112(%rsp)
	movq	%rcx, 120(%rsp)
	movq	104(%rsp), %rcx
	movq	%rcx, (%rax)
	movq	112(%rsp), %rcx
	movq	%rcx, 8(%rax)
	movq	120(%rsp), %rcx
	movq	%rcx, 16(%rax)
.Ltmp823:
	.cv_loc	345 44 361 0
	jmp	.LBB84_7
.Ltmp824:
.LBB84_6:
	.cv_loc	345 44 361 0
	jmp	.LBB84_8
.Ltmp825:
.LBB84_7:
	.cv_loc	345 44 366 0
	movq	64(%rsp), %rax
	.seh_startepilogue
	addq	$232, %rsp
	.seh_endepilogue
	retq
.LBB84_8:
	.cv_loc	345 44 364 0
	movq	56(%rsp), %rax
.Ltmp826:
	movq	$0, (%rax)
	.cv_loc	345 44 361 0
	jmp	.LBB84_7
.Ltmp827:
.Lfunc_end84:
	.seh_endproc

	.def	_RNvMs1_NtNtCsaGRekH07FSF_4core3ptr8non_nullINtB5_7NonNullReE20offset_from_unsignedCs2J74ZzqJeQl_5types;
	.scl	2;
	.type	32;
	.endef
	.section	.text,"xr",one_only,_RNvMs1_NtNtCsaGRekH07FSF_4core3ptr8non_nullINtB5_7NonNullReE20offset_from_unsignedCs2J74ZzqJeQl_5types,unique,86
	.globl	_RNvMs1_NtNtCsaGRekH07FSF_4core3ptr8non_nullINtB5_7NonNullReE20offset_from_unsignedCs2J74ZzqJeQl_5types
	.p2align	4
_RNvMs1_NtNtCsaGRekH07FSF_4core3ptr8non_nullINtB5_7NonNullReE20offset_from_unsignedCs2J74ZzqJeQl_5types:
.Lfunc_begin85:
	.cv_func_id 356
	.cv_loc	356 9 949 0
.seh_proc _RNvMs1_NtNtCsaGRekH07FSF_4core3ptr8non_nullINtB5_7NonNullReE20offset_from_unsignedCs2J74ZzqJeQl_5types
	subq	$104, %rsp
	.seh_stackalloc 104
	.seh_endprologue
	movq	%rdx, 32(%rsp)
	movq	%rcx, 40(%rsp)
	movq	%rcx, 48(%rsp)
	movq	%rdx, 56(%rsp)
.Ltmp828:
	.cv_inline_site_id 357 within 356 inlined_at 9 954 0
	.cv_loc	357 9 408 0
	movq	%rcx, 64(%rsp)
.Ltmp829:
	.cv_loc	356 9 954 0
	movq	%rdx, 72(%rsp)
.Ltmp830:
	.cv_loc	357 10 887 0
	movq	%rcx, 80(%rsp)
	.cv_inline_site_id 358 within 357 inlined_at 10 887 0
	.cv_loc	358 13 78 0
	movq	32(%rsp), %rdx
	movq	40(%rsp), %rcx
.Ltmp831:
	leaq	anon.d3fe902d2fc543e5a5ebd510b0621c19.45(%rip), %r8
	callq	_RNvNvMNtNtCsaGRekH07FSF_4core3ptr9const_ptrPp20offset_from_unsigned18precondition_checkCs2J74ZzqJeQl_5types
.Ltmp832:
	.cv_file	50 "/rustc/1be6b13be73dc12e98e51b403add4c41a0b77759\\library\\core\\src\\mem\\mod.rs" "C16A83732BEE8C7081F9AB217E795B4F45AF1FD76A881B6F76D7EC32693FF620" 3
	.cv_inline_site_id 359 within 358 inlined_at 24 726 0
	.cv_loc	359 50 337 0
	movq	$16, 88(%rsp)
.Ltmp833:
	.cv_loc	358 24 727 0
	jmp	.LBB85_4
.LBB85_4:
	.cv_loc	358 24 729 0
	movq	32(%rsp), %rcx
	movq	40(%rsp), %rax
	subq	%rcx, %rax
	shrq	$4, %rax
	movq	%rax, 96(%rsp)
	movq	96(%rsp), %rax
.Ltmp834:
	.cv_loc	356 9 955 0
	.seh_startepilogue
	addq	$104, %rsp
	.seh_endepilogue
	retq
.Ltmp835:
.Lfunc_end85:
	.seh_endproc

	.def	_RNvMs1_NtNtCsaGRekH07FSF_4core3ptr8non_nullINtB5_7NonNullhE20offset_from_unsignedCs2J74ZzqJeQl_5types;
	.scl	2;
	.type	32;
	.endef
	.section	.text,"xr",one_only,_RNvMs1_NtNtCsaGRekH07FSF_4core3ptr8non_nullINtB5_7NonNullhE20offset_from_unsignedCs2J74ZzqJeQl_5types,unique,87
	.globl	_RNvMs1_NtNtCsaGRekH07FSF_4core3ptr8non_nullINtB5_7NonNullhE20offset_from_unsignedCs2J74ZzqJeQl_5types
	.p2align	4
_RNvMs1_NtNtCsaGRekH07FSF_4core3ptr8non_nullINtB5_7NonNullhE20offset_from_unsignedCs2J74ZzqJeQl_5types:
.Lfunc_begin86:
	.cv_func_id 360
	.cv_loc	360 9 949 0
.seh_proc _RNvMs1_NtNtCsaGRekH07FSF_4core3ptr8non_nullINtB5_7NonNullhE20offset_from_unsignedCs2J74ZzqJeQl_5types
	subq	$104, %rsp
	.seh_stackalloc 104
	.seh_endprologue
	movq	%rdx, 32(%rsp)
	movq	%rcx, 40(%rsp)
	movq	%rcx, 48(%rsp)
	movq	%rdx, 56(%rsp)
.Ltmp836:
	.cv_inline_site_id 361 within 360 inlined_at 9 954 0
	.cv_loc	361 9 408 0
	movq	%rcx, 64(%rsp)
.Ltmp837:
	.cv_loc	360 9 954 0
	movq	%rdx, 72(%rsp)
.Ltmp838:
	.cv_loc	361 10 887 0
	movq	%rcx, 80(%rsp)
	.cv_inline_site_id 362 within 361 inlined_at 10 887 0
	.cv_loc	362 13 78 0
	movq	32(%rsp), %rdx
	movq	40(%rsp), %rcx
.Ltmp839:
	leaq	anon.d3fe902d2fc543e5a5ebd510b0621c19.45(%rip), %r8
	callq	_RNvNvMNtNtCsaGRekH07FSF_4core3ptr9const_ptrPp20offset_from_unsigned18precondition_checkCs2J74ZzqJeQl_5types
.Ltmp840:
	.cv_inline_site_id 363 within 362 inlined_at 24 726 0
	.cv_loc	363 50 337 0
	movq	$1, 88(%rsp)
.Ltmp841:
	.cv_loc	362 24 727 0
	jmp	.LBB86_4
.LBB86_4:
	.cv_loc	362 24 729 0
	movq	32(%rsp), %rcx
	movq	40(%rsp), %rax
	subq	%rcx, %rax
	shrq	$0, %rax
	movq	%rax, 96(%rsp)
	movq	96(%rsp), %rax
.Ltmp842:
	.cv_loc	360 9 955 0
	.seh_startepilogue
	addq	$104, %rsp
	.seh_endepilogue
	retq
.Ltmp843:
.Lfunc_end86:
	.seh_endproc

	.def	_RNvMs2_NtCsdKWIjqbzJ9K_5alloc7raw_vecNtB5_11RawVecInner10deallocateCs2J74ZzqJeQl_5types;
	.scl	2;
	.type	32;
	.endef
	.section	.text,"xr",one_only,_RNvMs2_NtCsdKWIjqbzJ9K_5alloc7raw_vecNtB5_11RawVecInner10deallocateCs2J74ZzqJeQl_5types,unique,88
	.globl	_RNvMs2_NtCsdKWIjqbzJ9K_5alloc7raw_vecNtB5_11RawVecInner10deallocateCs2J74ZzqJeQl_5types
	.p2align	4
_RNvMs2_NtCsdKWIjqbzJ9K_5alloc7raw_vecNtB5_11RawVecInner10deallocateCs2J74ZzqJeQl_5types:
.Lfunc_begin87:
	.cv_func_id 364
	.cv_loc	364 6 830 0
.seh_proc _RNvMs2_NtCsdKWIjqbzJ9K_5alloc7raw_vecNtB5_11RawVecInner10deallocateCs2J74ZzqJeQl_5types
	subq	$120, %rsp
	.seh_stackalloc 120
	.seh_endprologue
	movq	%r8, %r9
	movq	%rdx, %r8
	movq	%rcx, %rdx
	movq	%rdx, 40(%rsp)
	movq	%rdx, 72(%rsp)
	movq	%r8, 80(%rsp)
	movq	%r9, 88(%rsp)
.Ltmp844:
	.cv_loc	364 6 832 0
	leaq	48(%rsp), %rcx
	callq	_RNvMs2_NtCsdKWIjqbzJ9K_5alloc7raw_vecNtB5_11RawVecInner14current_memoryCs2J74ZzqJeQl_5types
	movl	$1, %eax
	xorl	%ecx, %ecx
	cmpq	$0, 56(%rsp)
	cmoveq	%rcx, %rax
	testq	$1, %rax
	je	.LBB87_2
	movq	40(%rsp), %rcx
	movq	48(%rsp), %rdx
	movq	%rdx, 96(%rsp)
	movq	56(%rsp), %r8
	movq	64(%rsp), %r9
	movq	%r8, 104(%rsp)
	movq	%r9, 112(%rsp)
	.cv_loc	364 6 834 0
	addq	$16, %rcx
	callq	_RNvXs_NtCsdKWIjqbzJ9K_5alloc5allocNtB4_6GlobalNtNtCsaGRekH07FSF_4core5alloc9Allocator10deallocateCs2J74ZzqJeQl_5types
.Ltmp845:
	.cv_loc	364 6 832 0
	jmp	.LBB87_3
.LBB87_2:
	jmp	.LBB87_3
.LBB87_3:
	.cv_loc	364 6 837 0
	.seh_startepilogue
	addq	$120, %rsp
	.seh_endepilogue
	retq
.Ltmp846:
.Lfunc_end87:
	.seh_endproc

	.def	_RNvMs2_NtCsdKWIjqbzJ9K_5alloc7raw_vecNtB5_11RawVecInner11finish_growCs2J74ZzqJeQl_5types;
	.scl	2;
	.type	32;
	.endef
	.section	.text,"xr",one_only,_RNvMs2_NtCsdKWIjqbzJ9K_5alloc7raw_vecNtB5_11RawVecInner11finish_growCs2J74ZzqJeQl_5types,unique,89
	.globl	_RNvMs2_NtCsdKWIjqbzJ9K_5alloc7raw_vecNtB5_11RawVecInner11finish_growCs2J74ZzqJeQl_5types
	.p2align	4
_RNvMs2_NtCsdKWIjqbzJ9K_5alloc7raw_vecNtB5_11RawVecInner11finish_growCs2J74ZzqJeQl_5types:
.Lfunc_begin88:
	.cv_func_id 365
	.cv_loc	365 6 740 0
.seh_proc _RNvMs2_NtCsdKWIjqbzJ9K_5alloc7raw_vecNtB5_11RawVecInner11finish_growCs2J74ZzqJeQl_5types
	subq	$504, %rsp
	.seh_stackalloc 504
	.seh_endprologue
	movq	%r9, 96(%rsp)
	movq	%rdx, 104(%rsp)
	movq	%rcx, 112(%rsp)
	movq	%rcx, 120(%rsp)
	movq	544(%rsp), %rax
	movq	%rax, 128(%rsp)
	movq	%rdx, 280(%rsp)
	movq	%r8, 288(%rsp)
	movq	%r9, 296(%rsp)
	movq	%rax, 304(%rsp)
.Ltmp847:
	.cv_loc	365 6 745 0
	movq	%r9, 184(%rsp)
	movq	%rax, 192(%rsp)
.Ltmp848:
	.cv_inline_site_id 366 within 365 inlined_at 6 745 0
	.cv_loc	366 6 853 0
	leaq	256(%rsp), %rcx
	leaq	184(%rsp), %rdx
	callq	_RNvMNtNtCsaGRekH07FSF_4core5alloc6layoutNtB2_6Layout6repeatCs2J74ZzqJeQl_5types
.Ltmp849:
	.cv_inline_site_id 367 within 366 inlined_at 6 853 0
	.cv_loc	367 45 835 0
	xorl	%eax, %eax
	movl	$1, %ecx
	cmpq	$0, 256(%rsp)
	cmoveq	%rcx, %rax
	testq	$1, %rax
	je	.LBB88_2
	.cv_loc	367 45 837 0
	movq	112(%rsp), %rax
.Ltmp850:
	movq	anon.d3fe902d2fc543e5a5ebd510b0621c19.5(%rip), %rdx
	movq	anon.d3fe902d2fc543e5a5ebd510b0621c19.5+8(%rip), %rcx
	movq	%rdx, 240(%rsp)
	movq	%rcx, 248(%rsp)
.Ltmp851:
	.cv_loc	367 45 968 0
	movq	anon.d3fe902d2fc543e5a5ebd510b0621c19.5(%rip), %rdx
	movq	anon.d3fe902d2fc543e5a5ebd510b0621c19.5+8(%rip), %rcx
	movq	%rdx, 168(%rsp)
	movq	%rcx, 176(%rsp)
	movq	$1, 160(%rsp)
.Ltmp852:
	.cv_inline_site_id 368 within 365 inlined_at 6 745 0
	.cv_loc	368 45 2175 0
	movq	168(%rsp), %rdx
	movq	176(%rsp), %rcx
	movq	%rdx, 456(%rsp)
	movq	%rcx, 464(%rsp)
.Ltmp853:
	.cv_loc	368 45 2175 0
	movq	%rdx, 144(%rsp)
	movq	%rcx, 152(%rsp)
	movq	$1, 136(%rsp)
.Ltmp854:
	.cv_loc	365 6 745 0
	movq	144(%rsp), %rdx
	movq	152(%rsp), %rcx
	movq	%rdx, 472(%rsp)
	movq	%rcx, 480(%rsp)
.Ltmp855:
	.cv_inline_site_id 369 within 365 inlined_at 6 745 0
	.cv_loc	369 45 2189 0
	movq	%rdx, 488(%rsp)
	movq	%rcx, 496(%rsp)
.Ltmp856:
	.cv_loc	369 45 2189 0
	movq	%rdx, 8(%rax)
	movq	%rcx, 16(%rax)
	movq	$1, (%rax)
.Ltmp857:
	.cv_loc	365 6 759 0
	jmp	.LBB88_11
.LBB88_2:
	.cv_loc	367 45 836 0
	movq	128(%rsp), %r9
	movq	96(%rsp), %r8
	movq	104(%rsp), %rdx
.Ltmp858:
	movq	256(%rsp), %rcx
	movq	264(%rsp), %rax
	movq	%rcx, 320(%rsp)
	movq	%rax, 328(%rsp)
	movq	272(%rsp), %r10
	movq	%r10, 336(%rsp)
.Ltmp859:
	.cv_loc	367 45 836 0
	movq	%rcx, 240(%rsp)
	movq	%rax, 248(%rsp)
.Ltmp860:
	.cv_loc	367 45 967 0
	movq	240(%rsp), %rcx
	movq	248(%rsp), %rax
	movq	%rcx, 344(%rsp)
	movq	%rax, 352(%rsp)
.Ltmp861:
	.cv_loc	367 45 967 0
	movq	%rcx, 168(%rsp)
	movq	%rax, 176(%rsp)
	movq	$0, 160(%rsp)
.Ltmp862:
	.cv_loc	368 45 2174 0
	movq	168(%rsp), %rcx
	movq	176(%rsp), %rax
	movq	%rcx, 360(%rsp)
	movq	%rax, 368(%rsp)
.Ltmp863:
	.cv_loc	368 45 2174 0
	movq	%rcx, 144(%rsp)
	movq	%rax, 152(%rsp)
	movq	$0, 136(%rsp)
.Ltmp864:
	.cv_loc	365 6 745 0
	movq	144(%rsp), %rcx
	movq	%rcx, 80(%rsp)
	movq	152(%rsp), %rax
	movq	%rax, 88(%rsp)
	movq	%rcx, 376(%rsp)
	movq	%rax, 384(%rsp)
.Ltmp865:
	.cv_loc	365 6 745 0
	movq	%rcx, 392(%rsp)
	movq	%rax, 400(%rsp)
.Ltmp866:
	.cv_loc	365 6 747 0
	leaq	216(%rsp), %rcx
	callq	_RNvMs2_NtCsdKWIjqbzJ9K_5alloc7raw_vecNtB5_11RawVecInner14current_memoryCs2J74ZzqJeQl_5types
	movl	$1, %eax
	xorl	%ecx, %ecx
	cmpq	$0, 224(%rsp)
	cmoveq	%rcx, %rax
	testq	$1, %rax
	je	.LBB88_4
	movq	80(%rsp), %rcx
	movq	216(%rsp), %rax
	movq	%rax, 48(%rsp)
	movq	%rax, 408(%rsp)
	movq	224(%rsp), %rax
	movq	%rax, 56(%rsp)
	movq	232(%rsp), %rdx
	movq	%rdx, 64(%rsp)
	movq	%rax, 416(%rsp)
	movq	%rdx, 424(%rsp)
.Ltmp867:
	.cv_loc	365 6 751 0
	cmpq	%rcx, %rax
	sete	%al
	movb	%al, 79(%rsp)
	andb	$1, %al
	movb	%al, 439(%rsp)
.Ltmp868:
	.cv_inline_site_id 370 within 365 inlined_at 6 751 0
	.cv_loc	370 13 77 0
	jmp	.LBB88_5
.Ltmp869:
.LBB88_4:
	.cv_loc	365 6 755 0
	movq	88(%rsp), %r8
	movq	80(%rsp), %rdx
	movq	104(%rsp), %rcx
	addq	$16, %rcx
	callq	_RNvXs_NtCsdKWIjqbzJ9K_5alloc5allocNtB4_6GlobalNtNtCsaGRekH07FSF_4core5alloc9Allocator8allocateCs2J74ZzqJeQl_5types
	movq	%rax, 200(%rsp)
	movq	%rdx, 208(%rsp)
	.cv_loc	365 6 747 0
	jmp	.LBB88_7
.LBB88_5:
	.cv_loc	370 13 78 0
	movb	79(%rsp), %cl
.Ltmp870:
	andb	$1, %cl
	leaq	anon.d3fe902d2fc543e5a5ebd510b0621c19.48(%rip), %rdx
	callq	_RNvNvNtCsaGRekH07FSF_4core4hint16assert_unchecked18precondition_checkCs2J74ZzqJeQl_5types
.Ltmp871:
	.cv_loc	365 6 752 0
	movq	88(%rsp), %rax
	movq	80(%rsp), %r10
	movq	64(%rsp), %r9
	movq	56(%rsp), %r8
	movq	48(%rsp), %rdx
	movq	104(%rsp), %rcx
	addq	$16, %rcx
	movq	%r10, 32(%rsp)
	movq	%rax, 40(%rsp)
	callq	_RNvXs_NtCsdKWIjqbzJ9K_5alloc5allocNtB4_6GlobalNtNtCsaGRekH07FSF_4core5alloc9Allocator4growCs2J74ZzqJeQl_5types
	movq	%rax, 200(%rsp)
	movq	%rdx, 208(%rsp)
.Ltmp872:
.LBB88_7:
	.cv_inline_site_id 371 within 365 inlined_at 6 758 0
	.cv_loc	371 45 966 0
	movq	200(%rsp), %rdx
	xorl	%eax, %eax
	movl	$1, %ecx
	cmpq	$0, %rdx
	cmoveq	%rcx, %rax
	testq	$1, %rax
	je	.LBB88_9
.Ltmp873:
	.cv_loc	371 45 968 0
	movq	112(%rsp), %rax
	movq	88(%rsp), %rcx
	movq	80(%rsp), %rdx
.Ltmp874:
	movq	%rdx, 8(%rax)
	movq	%rcx, 16(%rax)
	movq	$1, (%rax)
.Ltmp875:
	.cv_loc	371 45 968 0
	jmp	.LBB88_10
.LBB88_9:
	.cv_loc	371 45 967 0
	movq	112(%rsp), %rax
	movq	200(%rsp), %rdx
	movq	208(%rsp), %rcx
	movq	%rdx, 440(%rsp)
	movq	%rcx, 448(%rsp)
.Ltmp876:
	.cv_loc	371 45 967 0
	movq	%rdx, 8(%rax)
	movq	%rcx, 16(%rax)
	movq	$0, (%rax)
.Ltmp877:
.LBB88_10:
	.cv_loc	365 6 759 0
	jmp	.LBB88_11
.LBB88_11:
	movq	120(%rsp), %rax
	.seh_startepilogue
	addq	$504, %rsp
	.seh_endepilogue
	retq
.Ltmp878:
.Lfunc_end88:
	.seh_endproc

	.def	_RNvMs2_NtCsdKWIjqbzJ9K_5alloc7raw_vecNtB5_11RawVecInner14current_memoryCs2J74ZzqJeQl_5types;
	.scl	2;
	.type	32;
	.endef
	.section	.text,"xr",one_only,_RNvMs2_NtCsdKWIjqbzJ9K_5alloc7raw_vecNtB5_11RawVecInner14current_memoryCs2J74ZzqJeQl_5types,unique,90
	.globl	_RNvMs2_NtCsdKWIjqbzJ9K_5alloc7raw_vecNtB5_11RawVecInner14current_memoryCs2J74ZzqJeQl_5types
	.p2align	4
_RNvMs2_NtCsdKWIjqbzJ9K_5alloc7raw_vecNtB5_11RawVecInner14current_memoryCs2J74ZzqJeQl_5types:
.Lfunc_begin89:
	.cv_func_id 372
	.cv_loc	372 6 522 0
.seh_proc _RNvMs2_NtCsdKWIjqbzJ9K_5alloc7raw_vecNtB5_11RawVecInner14current_memoryCs2J74ZzqJeQl_5types
	subq	$216, %rsp
	.seh_stackalloc 216
	.seh_endprologue
	movq	%r9, 48(%rsp)
	movq	%r8, 56(%rsp)
	movq	%rdx, 64(%rsp)
	movq	%rcx, 72(%rsp)
	movq	%rcx, 80(%rsp)
	movq	%rdx, 128(%rsp)
	movq	%r8, 136(%rsp)
	movq	%r9, 144(%rsp)
.Ltmp879:
	.cv_inline_site_id 373 within 372 inlined_at 6 523 0
	.cv_loc	373 44 140 0
	movq	%r9, 152(%rsp)
.Ltmp880:
	.cv_loc	372 6 523 0
	cmpq	$0, %r9
	jne	.LBB89_2
.Ltmp881:
.LBB89_1:
	.cv_loc	372 6 524 0
	movq	72(%rsp), %rax
	movq	$0, 8(%rax)
	.cv_loc	372 6 523 0
	jmp	.LBB89_5
.LBB89_2:
	movq	64(%rsp), %rax
	movq	(%rax), %rax
	movq	%rax, 160(%rsp)
	cmpq	$0, %rax
	jne	.LBB89_4
	jmp	.LBB89_1
.LBB89_4:
	.cv_loc	372 6 531 0
	movq	64(%rsp), %rax
.Ltmp882:
	movq	(%rax), %rax
	movq	%rax, 40(%rsp)
	movq	%rax, 168(%rsp)
.Ltmp883:
	.cv_inline_site_id 374 within 372 inlined_at 6 531 0
	.cv_loc	374 8 61 0
	movq	%rax, 176(%rsp)
.Ltmp884:
	.cv_loc	374 13 77 0
	jmp	.LBB89_6
.Ltmp885:
.LBB89_5:
	.cv_loc	372 6 536 0
	movq	80(%rsp), %rax
	.seh_startepilogue
	addq	$216, %rsp
	.seh_endepilogue
	retq
.LBB89_6:
	.cv_loc	374 13 78 0
	movq	40(%rsp), %rdx
	movq	48(%rsp), %rcx
.Ltmp886:
	leaq	anon.d3fe902d2fc543e5a5ebd510b0621c19.49(%rip), %r8
	callq	_RNvNvMs9_NtCsaGRekH07FSF_4core3numj13unchecked_mul18precondition_checkCs2J74ZzqJeQl_5types
	movq	48(%rsp), %rcx
	movq	40(%rsp), %rdx
	movq	56(%rsp), %rax
	.cv_loc	374 7 1117 0
	imulq	%rdx, %rcx
	movq	%rcx, 88(%rsp)
.Ltmp887:
	.cv_loc	372 6 532 0
	movq	88(%rsp), %rcx
	movq	%rcx, 184(%rsp)
.Ltmp888:
	.cv_inline_site_id 375 within 372 inlined_at 6 532 0
	.cv_inline_site_id 376 within 375 inlined_at 44 152 0
	.cv_loc	376 49 95 0
	movq	%rax, 96(%rsp)
.Ltmp889:
	.cv_loc	375 13 78 0
	movq	88(%rsp), %rcx
	movq	96(%rsp), %rdx
	leaq	anon.d3fe902d2fc543e5a5ebd510b0621c19.50(%rip), %r8
	callq	_RNvNvMNtNtCsaGRekH07FSF_4core5alloc6layoutNtB4_6Layout25from_size_align_unchecked18precondition_checkCs2J74ZzqJeQl_5types
	.cv_loc	375 44 131 0
	movq	72(%rsp), %rax
	movq	64(%rsp), %r8
	movq	96(%rsp), %rdx
	movq	88(%rsp), %rcx
	movq	%rdx, 192(%rsp)
	movq	%rcx, 200(%rsp)
.Ltmp890:
	.cv_loc	372 6 533 0
	movq	8(%r8), %r8
	movq	%r8, 208(%rsp)
	movq	%r8, 104(%rsp)
	movq	%rdx, 112(%rsp)
	movq	%rcx, 120(%rsp)
	movq	104(%rsp), %rcx
	movq	%rcx, (%rax)
	movq	112(%rsp), %rcx
	movq	%rcx, 8(%rax)
	movq	120(%rsp), %rcx
	movq	%rcx, 16(%rax)
.Ltmp891:
	.cv_loc	372 6 523 0
	jmp	.LBB89_5
.Ltmp892:
.Lfunc_end89:
	.seh_endproc

	.def	_RNvMs2_NtCsdKWIjqbzJ9K_5alloc7raw_vecNtB5_11RawVecInner14grow_amortizedCs2J74ZzqJeQl_5types;
	.scl	2;
	.type	32;
	.endef
	.section	.text,"xr",one_only,_RNvMs2_NtCsdKWIjqbzJ9K_5alloc7raw_vecNtB5_11RawVecInner14grow_amortizedCs2J74ZzqJeQl_5types,unique,91
	.globl	_RNvMs2_NtCsdKWIjqbzJ9K_5alloc7raw_vecNtB5_11RawVecInner14grow_amortizedCs2J74ZzqJeQl_5types
	.p2align	4
_RNvMs2_NtCsdKWIjqbzJ9K_5alloc7raw_vecNtB5_11RawVecInner14grow_amortizedCs2J74ZzqJeQl_5types:
.Lfunc_begin90:
	.cv_func_id 377
	.cv_loc	377 6 672 0
.seh_proc _RNvMs2_NtCsdKWIjqbzJ9K_5alloc7raw_vecNtB5_11RawVecInner14grow_amortizedCs2J74ZzqJeQl_5types
	pushq	%r14
	.seh_pushreg %r14
	pushq	%rsi
	.seh_pushreg %rsi
	pushq	%rdi
	.seh_pushreg %rdi
	pushq	%rbx
	.seh_pushreg %rbx
	subq	$504, %rsp
	.seh_stackalloc 504
	.seh_endprologue
	movq	%r9, %rsi
	movq	%rsi, 64(%rsp)
	movq	%r8, %rdi
	movq	%rdi, 72(%rsp)
	movq	%rdx, %rbx
	movq	%rbx, 80(%rsp)
	movq	%rcx, %r14
	movq	%r14, 88(%rsp)
	movq	576(%rsp), %rax
	movq	%rax, 96(%rsp)
	movq	anon.d3fe902d2fc543e5a5ebd510b0621c19.5(%rip), %r11
	movq	anon.d3fe902d2fc543e5a5ebd510b0621c19.5+8(%rip), %r10
	movq	anon.d3fe902d2fc543e5a5ebd510b0621c19.5(%rip), %r9
	movq	anon.d3fe902d2fc543e5a5ebd510b0621c19.5+8(%rip), %r8
	movq	anon.d3fe902d2fc543e5a5ebd510b0621c19.5(%rip), %rdx
	movq	anon.d3fe902d2fc543e5a5ebd510b0621c19.5+8(%rip), %rcx
	movq	%r14, 224(%rsp)
	movq	%rbx, 232(%rsp)
	movq	%rdi, 240(%rsp)
	movq	%rsi, 248(%rsp)
	movq	%rax, 256(%rsp)
.Ltmp893:
	.cv_file	51 "/rustc/1be6b13be73dc12e98e51b403add4c41a0b77759\\library\\core\\src\\convert\\mod.rs" "408666FD28F14C500EEB5FFB08C131D8237E8A9D9E84739A72242DCDC2905A72" 3
	.cv_inline_site_id 378 within 377 inlined_at 6 684 0
	.cv_loc	378 51 777 0
	movq	%r11, 264(%rsp)
	movq	%r10, 272(%rsp)
.Ltmp894:
	.cv_file	52 "/rustc/1be6b13be73dc12e98e51b403add4c41a0b77759\\library\\alloc\\src\\collections\\mod.rs" "0E96F85829085CC947C1B72D6B39C175E971D7BB04FFD56493CC948C58919A98" 3
	.cv_inline_site_id 379 within 378 inlined_at 51 778 0
	.cv_loc	379 52 135 0
	movq	%r9, 280(%rsp)
	movq	%r8, 288(%rsp)
.Ltmp895:
	.cv_inline_site_id 380 within 377 inlined_at 6 688 0
	.cv_loc	380 1 1337 0
	movq	%rdx, 296(%rsp)
	movq	%rcx, 304(%rsp)
.Ltmp896:
	.cv_loc	377 6 681 0
	cmpq	$0, %rax
	jne	.LBB90_2
.Ltmp897:
	.cv_loc	377 6 684 0
	movq	anon.d3fe902d2fc543e5a5ebd510b0621c19.5(%rip), %rcx
	movq	anon.d3fe902d2fc543e5a5ebd510b0621c19.5+8(%rip), %rax
	movq	%rcx, 104(%rsp)
	movq	%rax, 112(%rsp)
	.cv_loc	377 27 1 0
	jmp	.LBB90_3
.LBB90_2:
	.cv_loc	380 7 654 0
	movq	80(%rsp), %rcx
	movq	72(%rsp), %rdx
.Ltmp898:
	movq	%rcx, %rax
	addq	%rdx, %rax
	cmpq	%rcx, %rax
	setb	%al
	movb	%al, %cl
	andb	$1, %cl
	movb	%cl, 319(%rsp)
.Ltmp899:
	.cv_inline_site_id 381 within 380 inlined_at 7 654 0
	.cv_loc	381 19 457 0
	testb	$1, %al
	jne	.LBB90_5
	jmp	.LBB90_4
.Ltmp900:
.LBB90_3:
	.cv_loc	377 6 703 0
	movq	104(%rsp), %rax
	movq	112(%rsp), %rdx
	.seh_startepilogue
	addq	$504, %rsp
	popq	%rbx
	popq	%rdi
	popq	%rsi
	popq	%r14
	.seh_endepilogue
	retq
.LBB90_4:
	.cv_loc	380 7 658 0
	movq	88(%rsp), %rax
	movq	72(%rsp), %rdx
	movq	80(%rsp), %rcx
.Ltmp901:
	addq	%rdx, %rcx
	movq	%rcx, 160(%rsp)
	movq	$1, 152(%rsp)
.Ltmp902:
	.cv_loc	380 1 1339 0
	movq	160(%rsp), %rcx
	movq	%rcx, 320(%rsp)
.Ltmp903:
	.cv_loc	380 1 1339 0
	movq	%rcx, 144(%rsp)
	movabsq	$-9223372036854775807, %rcx
	movq	%rcx, 136(%rsp)
.Ltmp904:
	.cv_loc	380 45 2174 0
	movq	144(%rsp), %rcx
	movq	%rcx, 328(%rsp)
.Ltmp905:
	.cv_loc	380 45 2174 0
	movq	%rcx, 128(%rsp)
	movabsq	$-9223372036854775807, %rcx
	movq	%rcx, 120(%rsp)
.Ltmp906:
	.cv_loc	377 6 688 0
	movq	128(%rsp), %rdx
	movq	%rdx, 336(%rsp)
.Ltmp907:
	.cv_loc	377 6 692 0
	movq	(%rax), %rcx
	movq	%rcx, 344(%rsp)
	shlq	%rcx
	movq	%rcx, 352(%rsp)
.Ltmp908:
	.cv_file	53 "/rustc/1be6b13be73dc12e98e51b403add4c41a0b77759\\library\\core\\src\\cmp.rs" "005C962DE6317A2B023AA95B8E9A8FA42ABABEBC5ACA8BF80DC83E542D329EE7" 3
	.cv_inline_site_id 382 within 377 inlined_at 6 692 0
	.cv_loc	382 53 1670 0
	callq	_RNvYjNtNtCsaGRekH07FSF_4core3cmp3Ord3maxCs2J74ZzqJeQl_5types
	movq	%rax, %rcx
	movq	96(%rsp), %rax
	movq	%rcx, 56(%rsp)
	movq	%rcx, 360(%rsp)
.Ltmp909:
	.cv_inline_site_id 383 within 377 inlined_at 6 693 0
	.cv_loc	383 6 159 0
	cmpq	$1, %rax
	je	.LBB90_6
	jmp	.LBB90_7
.Ltmp910:
.LBB90_5:
	.cv_loc	380 7 655 0
	movq	anon.d3fe902d2fc543e5a5ebd510b0621c19.5(%rip), %rcx
	movq	anon.d3fe902d2fc543e5a5ebd510b0621c19.5+8(%rip), %rax
	movq	%rcx, 152(%rsp)
	movq	%rax, 160(%rsp)
.Ltmp911:
	.cv_loc	380 1 1340 0
	movq	anon.d3fe902d2fc543e5a5ebd510b0621c19.5(%rip), %rcx
	movq	anon.d3fe902d2fc543e5a5ebd510b0621c19.5+8(%rip), %rax
	movq	%rcx, 136(%rsp)
	movq	%rax, 144(%rsp)
.Ltmp912:
	.cv_loc	380 45 2175 0
	movq	136(%rsp), %rcx
	movq	144(%rsp), %rax
	movq	%rcx, 456(%rsp)
	movq	%rax, 464(%rsp)
.Ltmp913:
	.cv_loc	380 45 2175 0
	movq	%rcx, 120(%rsp)
	movq	%rax, 128(%rsp)
.Ltmp914:
	.cv_loc	377 6 688 0
	movq	120(%rsp), %rcx
	movq	128(%rsp), %rax
	movq	%rcx, 472(%rsp)
	movq	%rax, 480(%rsp)
.Ltmp915:
	.cv_inline_site_id 384 within 377 inlined_at 6 688 0
	.cv_loc	384 45 2189 0
	movq	%rcx, 488(%rsp)
	movq	%rax, 496(%rsp)
.Ltmp916:
	.cv_loc	384 45 2189 0
	movq	%rcx, 104(%rsp)
	movq	%rax, 112(%rsp)
.Ltmp917:
	.cv_loc	377 27 1 0
	jmp	.LBB90_14
.LBB90_6:
.Ltmp918:
	.cv_loc	383 6 160 0
	movq	$8, 168(%rsp)
	.cv_loc	383 6 159 0
	jmp	.LBB90_8
.LBB90_7:
	.cv_loc	383 6 161 0
	movq	96(%rsp), %rax
	cmpq	$1024, %rax
	jbe	.LBB90_10
	jmp	.LBB90_9
.Ltmp919:
.LBB90_8:
	.cv_loc	383 53 1670 0
	movq	56(%rsp), %rdx
.Ltmp920:
	movq	168(%rsp), %rcx
	callq	_RNvYjNtNtCsaGRekH07FSF_4core3cmp3Ord3maxCs2J74ZzqJeQl_5types
	movq	88(%rsp), %rdx
	movq	64(%rsp), %r9
	movq	%rax, %r8
	movq	96(%rsp), %rax
	movq	%r8, 48(%rsp)
	movq	%r8, 368(%rsp)
.Ltmp921:
	.cv_loc	377 6 698 0
	leaq	200(%rsp), %rcx
	movq	%rax, 32(%rsp)
	callq	_RNvMs2_NtCsdKWIjqbzJ9K_5alloc7raw_vecNtB5_11RawVecInner11finish_growCs2J74ZzqJeQl_5types
.Ltmp922:
	.cv_inline_site_id 385 within 377 inlined_at 6 698 0
	.cv_loc	385 45 2173 0
	testq	$1, 200(%rsp)
	jne	.LBB90_12
	jmp	.LBB90_13
.Ltmp923:
.LBB90_9:
	.cv_loc	383 6 164 0
	movq	$1, 168(%rsp)
	.cv_loc	383 6 161 0
	jmp	.LBB90_11
.LBB90_10:
	.cv_loc	383 6 162 0
	movq	$4, 168(%rsp)
.LBB90_11:
	.cv_loc	383 6 159 0
	jmp	.LBB90_8
.Ltmp924:
.LBB90_12:
	.cv_loc	385 45 2175 0
	movq	208(%rsp), %rcx
	movq	216(%rsp), %rax
	movq	%rcx, 408(%rsp)
	movq	%rax, 416(%rsp)
.Ltmp925:
	.cv_loc	385 45 2175 0
	movq	%rcx, 184(%rsp)
	movq	%rax, 192(%rsp)
	movq	$1, 176(%rsp)
.Ltmp926:
	.cv_loc	377 6 698 0
	movq	184(%rsp), %rcx
	movq	192(%rsp), %rax
	movq	%rcx, 424(%rsp)
	movq	%rax, 432(%rsp)
.Ltmp927:
	.cv_inline_site_id 386 within 377 inlined_at 6 698 0
	.cv_loc	386 45 2189 0
	movq	%rcx, 440(%rsp)
	movq	%rax, 448(%rsp)
.Ltmp928:
	.cv_loc	386 45 2189 0
	movq	%rcx, 104(%rsp)
	movq	%rax, 112(%rsp)
.Ltmp929:
	.cv_loc	377 27 1 0
	jmp	.LBB90_14
.LBB90_13:
	.cv_loc	385 45 2174 0
	movq	88(%rsp), %rax
	movq	48(%rsp), %rcx
.Ltmp930:
	movq	208(%rsp), %r8
	movq	216(%rsp), %rdx
	movq	%r8, 376(%rsp)
	movq	%rdx, 384(%rsp)
.Ltmp931:
	.cv_loc	385 45 2174 0
	movq	%r8, 184(%rsp)
	movq	%rdx, 192(%rsp)
	movq	$0, 176(%rsp)
.Ltmp932:
	.cv_loc	377 6 698 0
	movq	184(%rsp), %rdx
	movq	192(%rsp), %r8
	movq	%rdx, 392(%rsp)
	movq	%r8, 400(%rsp)
.Ltmp933:
	.cv_inline_site_id 387 within 377 inlined_at 6 701 0
	.cv_loc	387 6 663 0
	movq	%rdx, 8(%rax)
	.cv_loc	387 6 664 0
	movq	%rcx, (%rax)
.Ltmp934:
	.cv_loc	377 6 702 0
	movq	anon.d3fe902d2fc543e5a5ebd510b0621c19.51(%rip), %rcx
	movq	anon.d3fe902d2fc543e5a5ebd510b0621c19.51+8(%rip), %rax
	movq	%rcx, 104(%rsp)
	movq	%rax, 112(%rsp)
.Ltmp935:
	.cv_loc	377 6 703 0
	jmp	.LBB90_3
.LBB90_14:
	.cv_loc	377 27 1 0
	jmp	.LBB90_3
.Ltmp936:
.Lfunc_end90:
	.seh_endproc

	.def	_RNvMs2_NtCsdKWIjqbzJ9K_5alloc7raw_vecNtB5_11RawVecInner15try_allocate_inCs2J74ZzqJeQl_5types;
	.scl	2;
	.type	32;
	.endef
	.section	.text,"xr",one_only,_RNvMs2_NtCsdKWIjqbzJ9K_5alloc7raw_vecNtB5_11RawVecInner15try_allocate_inCs2J74ZzqJeQl_5types,unique,92
	.globl	_RNvMs2_NtCsdKWIjqbzJ9K_5alloc7raw_vecNtB5_11RawVecInner15try_allocate_inCs2J74ZzqJeQl_5types
	.p2align	4
_RNvMs2_NtCsdKWIjqbzJ9K_5alloc7raw_vecNtB5_11RawVecInner15try_allocate_inCs2J74ZzqJeQl_5types:
.Lfunc_begin91:
	.cv_func_id 388
	.cv_loc	388 6 449 0
.seh_proc _RNvMs2_NtCsdKWIjqbzJ9K_5alloc7raw_vecNtB5_11RawVecInner15try_allocate_inCs2J74ZzqJeQl_5types
	subq	$360, %rsp
	.seh_stackalloc 360
	.seh_endprologue
	movq	%r9, 48(%rsp)
	movb	%r8b, 71(%rsp)
	movq	%rdx, %r8
	movq	%r8, 56(%rsp)
	movq	%rcx, %rax
	movb	71(%rsp), %cl
	movq	%rax, 72(%rsp)
	movq	%rax, 80(%rsp)
	movq	400(%rsp), %rax
	movb	%cl, 94(%rsp)
	movq	%r8, 192(%rsp)
	andb	$1, %cl
	movb	%cl, 207(%rsp)
	movq	%r9, 208(%rsp)
	movq	%rax, 216(%rsp)
.Ltmp937:
	.cv_inline_site_id 389 within 388 inlined_at 6 459 0
	.cv_loc	389 51 777 0
	movq	$0, 224(%rsp)
	movq	%rcx, 232(%rsp)
.Ltmp938:
	.cv_inline_site_id 390 within 389 inlined_at 51 778 0
	.cv_loc	390 52 135 0
	movq	$0, 240(%rsp)
	movq	%rcx, 248(%rsp)
.Ltmp939:
	.cv_loc	388 6 457 0
	movq	%r9, 120(%rsp)
	movq	%rax, 128(%rsp)
.Ltmp940:
	.cv_inline_site_id 391 within 388 inlined_at 6 457 0
	.cv_loc	391 6 853 0
	leaq	168(%rsp), %rcx
	leaq	120(%rsp), %rdx
	callq	_RNvMNtNtCsaGRekH07FSF_4core5alloc6layoutNtB2_6Layout6repeatCs2J74ZzqJeQl_5types
.Ltmp941:
	.cv_inline_site_id 392 within 391 inlined_at 6 853 0
	.cv_loc	392 45 835 0
	xorl	%eax, %eax
	movl	$1, %ecx
	cmpq	$0, 168(%rsp)
	cmoveq	%rcx, %rax
	testq	$1, %rax
	je	.LBB91_2
	.cv_loc	392 45 837 0
	movq	72(%rsp), %rax
.Ltmp942:
	movq	$0, 152(%rsp)
	movq	%rcx, 160(%rsp)
.Ltmp943:
	.cv_loc	388 6 459 0
	movq	$0, 8(%rax)
	movq	%rcx, 16(%rax)
	movq	$1, (%rax)
	.cv_loc	388 6 485 0
	jmp	.LBB91_11
.LBB91_2:
.Ltmp944:
	.cv_loc	392 45 836 0
	movq	168(%rsp), %rcx
	movq	176(%rsp), %rax
	movq	%rcx, 256(%rsp)
	movq	%rax, 264(%rsp)
	movq	184(%rsp), %rdx
	movq	%rdx, 272(%rsp)
.Ltmp945:
	.cv_loc	392 45 836 0
	movq	%rcx, 152(%rsp)
	movq	%rax, 160(%rsp)
.Ltmp946:
	.cv_loc	392 45 967 0
	movq	152(%rsp), %rcx
	movq	160(%rsp), %rax
	movq	%rcx, 280(%rsp)
	movq	%rax, 288(%rsp)
.Ltmp947:
	.cv_loc	392 45 967 0
	movq	%rcx, 104(%rsp)
	movq	%rax, 112(%rsp)
	movq	$0, 96(%rsp)
.Ltmp948:
	.cv_loc	388 6 458 0
	movq	104(%rsp), %rcx
	movq	%rcx, 32(%rsp)
	movq	112(%rsp), %rax
	movq	%rax, 40(%rsp)
	movq	%rcx, 296(%rsp)
	movq	%rax, 304(%rsp)
.Ltmp949:
	.cv_loc	388 6 463 0
	cmpq	$0, %rax
	jne	.LBB91_4
.Ltmp950:
	.cv_inline_site_id 393 within 388 inlined_at 6 464 0
	.cv_loc	393 44 515 0
	movq	72(%rsp), %rax
	movq	48(%rsp), %rcx
.Ltmp951:
	movq	%rcx, 312(%rsp)
.Ltmp952:
	.cv_loc	388 6 464 0
	movq	$0, 8(%rax)
	movq	%rcx, 16(%rax)
	movq	$0, (%rax)
.Ltmp953:
	.cv_loc	388 6 485 0
	jmp	.LBB91_5
.Ltmp954:
.LBB91_4:
	.cv_loc	388 6 467 0
	movb	94(%rsp), %al
.Ltmp955:
	testb	$1, %al
	jne	.LBB91_6
	jmp	.LBB91_7
.Ltmp956:
.LBB91_5:
	.cv_loc	388 6 485 0
	movq	80(%rsp), %rax
	.seh_startepilogue
	addq	$360, %rsp
	.seh_endepilogue
	retq
.LBB91_6:
	.cv_loc	388 6 470 0
	movq	40(%rsp), %r8
	movq	32(%rsp), %rdx
.Ltmp957:
	leaq	95(%rsp), %rcx
	callq	_RNvXs_NtCsdKWIjqbzJ9K_5alloc5allocNtB4_6GlobalNtNtCsaGRekH07FSF_4core5alloc9Allocator15allocate_zeroedCs2J74ZzqJeQl_5types
	movq	%rax, 136(%rsp)
	movq	%rdx, 144(%rsp)
	jmp	.LBB91_8
.LBB91_7:
	.cv_loc	388 6 468 0
	movq	40(%rsp), %r8
	movq	32(%rsp), %rdx
	leaq	95(%rsp), %rcx
	callq	_RNvXs_NtCsdKWIjqbzJ9K_5alloc5allocNtB4_6GlobalNtNtCsaGRekH07FSF_4core5alloc9Allocator8allocateCs2J74ZzqJeQl_5types
	movq	%rax, 136(%rsp)
	movq	%rdx, 144(%rsp)
.LBB91_8:
.Ltmp958:
	.cv_loc	388 6 472 0
	movq	136(%rsp), %rdx
	xorl	%eax, %eax
	movl	$1, %ecx
	cmpq	$0, %rdx
	cmoveq	%rcx, %rax
	testq	$1, %rax
	je	.LBB91_10
	.cv_loc	388 6 474 0
	movq	72(%rsp), %rax
	movq	40(%rsp), %rcx
	movq	32(%rsp), %rdx
	movq	%rdx, 344(%rsp)
	movq	%rcx, 352(%rsp)
	movq	%rdx, 8(%rax)
	movq	%rcx, 16(%rax)
	movq	$1, (%rax)
.Ltmp959:
	.cv_loc	388 6 485 0
	jmp	.LBB91_11
.LBB91_10:
	.cv_loc	388 6 473 0
	movq	72(%rsp), %rax
	movq	56(%rsp), %rdx
.Ltmp960:
	movq	136(%rsp), %rcx
	movq	144(%rsp), %r8
	movq	%rcx, 320(%rsp)
	movq	%r8, 328(%rsp)
.Ltmp961:
	.cv_inline_site_id 394 within 388 inlined_at 6 481 0
	.cv_loc	394 9 505 0
	movq	%rcx, 336(%rsp)
.Ltmp962:
	.cv_loc	388 6 480 0
	movq	%rdx, 8(%rax)
	movq	%rcx, 16(%rax)
	movq	$0, (%rax)
.Ltmp963:
	.cv_loc	388 6 485 0
	jmp	.LBB91_5
.LBB91_11:
	jmp	.LBB91_5
.Ltmp964:
.Lfunc_end91:
	.seh_endproc

	.def	_RNvMs2_NtCsdKWIjqbzJ9K_5alloc7raw_vecNtB5_11RawVecInner16with_capacity_inCs2J74ZzqJeQl_5types;
	.scl	2;
	.type	32;
	.endef
	.section	.text,"xr",one_only,_RNvMs2_NtCsdKWIjqbzJ9K_5alloc7raw_vecNtB5_11RawVecInner16with_capacity_inCs2J74ZzqJeQl_5types,unique,93
	.globl	_RNvMs2_NtCsdKWIjqbzJ9K_5alloc7raw_vecNtB5_11RawVecInner16with_capacity_inCs2J74ZzqJeQl_5types
	.p2align	4
_RNvMs2_NtCsdKWIjqbzJ9K_5alloc7raw_vecNtB5_11RawVecInner16with_capacity_inCs2J74ZzqJeQl_5types:
.Lfunc_begin92:
	.cv_func_id 395
	.cv_loc	395 6 418 0
.seh_proc _RNvMs2_NtCsdKWIjqbzJ9K_5alloc7raw_vecNtB5_11RawVecInner16with_capacity_inCs2J74ZzqJeQl_5types
	subq	$216, %rsp
	.seh_stackalloc 216
	.seh_endprologue
	movq	%r8, %rax
	movq	%rax, 64(%rsp)
	movq	%rdx, %r9
	movq	%rcx, %rdx
	movq	%rdx, 72(%rsp)
	movq	%rdx, 112(%rsp)
	movq	%r9, 128(%rsp)
	movq	%rax, 136(%rsp)
.Ltmp965:
	.cv_inline_site_id 396 within 395 inlined_at 6 423 0
	.cv_loc	396 6 654 0
	movq	$0, 144(%rsp)
.Ltmp966:
	.cv_inline_site_id 397 within 396 inlined_at 6 655 0
	.cv_loc	397 7 2352 0
	movq	$0, 152(%rsp)
.Ltmp967:
	.cv_loc	395 6 419 0
	leaq	80(%rsp), %rcx
	xorl	%r8d, %r8d
	movq	%rax, 32(%rsp)
	callq	_RNvMs2_NtCsdKWIjqbzJ9K_5alloc7raw_vecNtB5_11RawVecInner15try_allocate_inCs2J74ZzqJeQl_5types
	testq	$1, 80(%rsp)
	je	.LBB92_2
	.cv_loc	395 6 427 0
	movq	88(%rsp), %rcx
	movq	96(%rsp), %rdx
	movq	%rcx, 200(%rsp)
	movq	%rdx, 208(%rsp)
.Ltmp968:
	.cv_loc	395 6 427 0
	callq	_RNvNtCsdKWIjqbzJ9K_5alloc7raw_vec12handle_error
.Ltmp969:
.LBB92_2:
	.cv_loc	395 6 420 0
	movq	64(%rsp), %rax
	movq	88(%rsp), %rdx
	movq	%rdx, 48(%rsp)
	movq	96(%rsp), %rcx
	movq	%rcx, 56(%rsp)
	movq	%rdx, 160(%rsp)
